
Fahrradwaschanlage.elf:     file format elf32-avr

Sections:
Idx Name          Size      VMA       LMA       File off  Algn
  0 .data         000002ac  00800200  000026d6  0000276a  2**0
                  CONTENTS, ALLOC, LOAD, DATA
  1 .text         000026d6  00000000  00000000  00000094  2**1
                  CONTENTS, ALLOC, LOAD, READONLY, CODE
  2 .bss          0000007e  008004ac  008004ac  00002a16  2**0
                  ALLOC
  3 .comment      0000005c  00000000  00000000  00002a16  2**0
                  CONTENTS, READONLY
  4 .note.gnu.avr.deviceinfo 00000040  00000000  00000000  00002a74  2**2
                  CONTENTS, READONLY
  5 .debug_aranges 000001f8  00000000  00000000  00002ab4  2**0
                  CONTENTS, READONLY, DEBUGGING
  6 .debug_info   00002b89  00000000  00000000  00002cac  2**0
                  CONTENTS, READONLY, DEBUGGING
  7 .debug_abbrev 00000f96  00000000  00000000  00005835  2**0
                  CONTENTS, READONLY, DEBUGGING
  8 .debug_line   00001c9d  00000000  00000000  000067cb  2**0
                  CONTENTS, READONLY, DEBUGGING
  9 .debug_frame  000006b4  00000000  00000000  00008468  2**2
                  CONTENTS, READONLY, DEBUGGING
 10 .debug_str    00000f47  00000000  00000000  00008b1c  2**0
                  CONTENTS, READONLY, DEBUGGING
 11 .debug_loc    00002748  00000000  00000000  00009a63  2**0
                  CONTENTS, READONLY, DEBUGGING
 12 .debug_ranges 00000208  00000000  00000000  0000c1ab  2**0
                  CONTENTS, READONLY, DEBUGGING

Disassembly of section .text:

00000000 <__vectors>:
       0:	7e c0       	rjmp	.+252    	; 0xfe <__ctors_end>
       2:	00 00       	nop
       4:	9c c0       	rjmp	.+312    	; 0x13e <__bad_interrupt>
       6:	00 00       	nop
       8:	9a c0       	rjmp	.+308    	; 0x13e <__bad_interrupt>
       a:	00 00       	nop
       c:	98 c0       	rjmp	.+304    	; 0x13e <__bad_interrupt>
       e:	00 00       	nop
      10:	96 c0       	rjmp	.+300    	; 0x13e <__bad_interrupt>
      12:	00 00       	nop
      14:	94 c0       	rjmp	.+296    	; 0x13e <__bad_interrupt>
      16:	00 00       	nop
      18:	92 c0       	rjmp	.+292    	; 0x13e <__bad_interrupt>
      1a:	00 00       	nop
      1c:	90 c0       	rjmp	.+288    	; 0x13e <__bad_interrupt>
      1e:	00 00       	nop
      20:	8e c0       	rjmp	.+284    	; 0x13e <__bad_interrupt>
      22:	00 00       	nop
      24:	8c c0       	rjmp	.+280    	; 0x13e <__bad_interrupt>
      26:	00 00       	nop
      28:	8a c0       	rjmp	.+276    	; 0x13e <__bad_interrupt>
      2a:	00 00       	nop
      2c:	88 c0       	rjmp	.+272    	; 0x13e <__bad_interrupt>
      2e:	00 00       	nop
      30:	86 c0       	rjmp	.+268    	; 0x13e <__bad_interrupt>
      32:	00 00       	nop
      34:	84 c0       	rjmp	.+264    	; 0x13e <__bad_interrupt>
      36:	00 00       	nop
      38:	82 c0       	rjmp	.+260    	; 0x13e <__bad_interrupt>
      3a:	00 00       	nop
      3c:	80 c0       	rjmp	.+256    	; 0x13e <__bad_interrupt>
      3e:	00 00       	nop
      40:	7e c0       	rjmp	.+252    	; 0x13e <__bad_interrupt>
      42:	00 00       	nop
      44:	7c c0       	rjmp	.+248    	; 0x13e <__bad_interrupt>
      46:	00 00       	nop
      48:	7a c0       	rjmp	.+244    	; 0x13e <__bad_interrupt>
      4a:	00 00       	nop
      4c:	78 c0       	rjmp	.+240    	; 0x13e <__bad_interrupt>
      4e:	00 00       	nop
      50:	76 c0       	rjmp	.+236    	; 0x13e <__bad_interrupt>
      52:	00 00       	nop
      54:	74 c0       	rjmp	.+232    	; 0x13e <__bad_interrupt>
      56:	00 00       	nop
      58:	72 c0       	rjmp	.+228    	; 0x13e <__bad_interrupt>
      5a:	00 00       	nop
      5c:	0c 94 a8 0f 	jmp	0x1f50	; 0x1f50 <__vector_23>
      60:	6e c0       	rjmp	.+220    	; 0x13e <__bad_interrupt>
      62:	00 00       	nop
      64:	6c c0       	rjmp	.+216    	; 0x13e <__bad_interrupt>
      66:	00 00       	nop
      68:	6a c0       	rjmp	.+212    	; 0x13e <__bad_interrupt>
      6a:	00 00       	nop
      6c:	68 c0       	rjmp	.+208    	; 0x13e <__bad_interrupt>
      6e:	00 00       	nop
      70:	66 c0       	rjmp	.+204    	; 0x13e <__bad_interrupt>
      72:	00 00       	nop
      74:	64 c0       	rjmp	.+200    	; 0x13e <__bad_interrupt>
      76:	00 00       	nop
      78:	62 c0       	rjmp	.+196    	; 0x13e <__bad_interrupt>
      7a:	00 00       	nop
      7c:	60 c0       	rjmp	.+192    	; 0x13e <__bad_interrupt>
      7e:	00 00       	nop
      80:	5e c0       	rjmp	.+188    	; 0x13e <__bad_interrupt>
      82:	00 00       	nop
      84:	5c c0       	rjmp	.+184    	; 0x13e <__bad_interrupt>
      86:	00 00       	nop
      88:	5a c0       	rjmp	.+180    	; 0x13e <__bad_interrupt>
      8a:	00 00       	nop
      8c:	58 c0       	rjmp	.+176    	; 0x13e <__bad_interrupt>
      8e:	00 00       	nop
      90:	56 c0       	rjmp	.+172    	; 0x13e <__bad_interrupt>
      92:	00 00       	nop
      94:	54 c0       	rjmp	.+168    	; 0x13e <__bad_interrupt>
      96:	00 00       	nop
      98:	52 c0       	rjmp	.+164    	; 0x13e <__bad_interrupt>
      9a:	00 00       	nop
      9c:	50 c0       	rjmp	.+160    	; 0x13e <__bad_interrupt>
      9e:	00 00       	nop
      a0:	4e c0       	rjmp	.+156    	; 0x13e <__bad_interrupt>
      a2:	00 00       	nop
      a4:	4c c0       	rjmp	.+152    	; 0x13e <__bad_interrupt>
      a6:	00 00       	nop
      a8:	4a c0       	rjmp	.+148    	; 0x13e <__bad_interrupt>
      aa:	00 00       	nop
      ac:	48 c0       	rjmp	.+144    	; 0x13e <__bad_interrupt>
      ae:	00 00       	nop
      b0:	46 c0       	rjmp	.+140    	; 0x13e <__bad_interrupt>
      b2:	00 00       	nop
      b4:	44 c0       	rjmp	.+136    	; 0x13e <__bad_interrupt>
      b6:	00 00       	nop
      b8:	42 c0       	rjmp	.+132    	; 0x13e <__bad_interrupt>
      ba:	00 00       	nop
      bc:	40 c0       	rjmp	.+128    	; 0x13e <__bad_interrupt>
      be:	00 00       	nop
      c0:	3e c0       	rjmp	.+124    	; 0x13e <__bad_interrupt>
      c2:	00 00       	nop
      c4:	3c c0       	rjmp	.+120    	; 0x13e <__bad_interrupt>
      c6:	00 00       	nop
      c8:	3a c0       	rjmp	.+116    	; 0x13e <__bad_interrupt>
      ca:	00 00       	nop
      cc:	38 c0       	rjmp	.+112    	; 0x13e <__bad_interrupt>
      ce:	00 00       	nop
      d0:	36 c0       	rjmp	.+108    	; 0x13e <__bad_interrupt>
      d2:	00 00       	nop
      d4:	34 c0       	rjmp	.+104    	; 0x13e <__bad_interrupt>
      d6:	00 00       	nop
      d8:	32 c0       	rjmp	.+100    	; 0x13e <__bad_interrupt>
      da:	00 00       	nop
      dc:	30 c0       	rjmp	.+96     	; 0x13e <__bad_interrupt>
      de:	00 00       	nop
      e0:	2e c0       	rjmp	.+92     	; 0x13e <__bad_interrupt>
      e2:	00 00       	nop
      e4:	c6 01       	movw	r24, r12
      e6:	e9 01       	movw	r28, r18
      e8:	13 02       	muls	r17, r19
      ea:	be 02       	muls	r27, r30
      ec:	e4 09       	sbc	r30, r4
      ee:	ec 0a       	sbc	r14, r28
      f0:	59 04       	cpc	r5, r9
      f2:	e7 04       	cpc	r14, r7
      f4:	5c 05       	cpc	r21, r12
      f6:	95 06       	cpc	r9, r21
      f8:	a3 07       	cpc	r26, r19
      fa:	b0 08       	sbc	r11, r0
      fc:	97 09       	sbc	r25, r7

000000fe <__ctors_end>:
      fe:	11 24       	eor	r1, r1
     100:	1f be       	out	0x3f, r1	; 63
     102:	cf ef       	ldi	r28, 0xFF	; 255
     104:	d1 e2       	ldi	r29, 0x21	; 33
     106:	de bf       	out	0x3e, r29	; 62
     108:	cd bf       	out	0x3d, r28	; 61
     10a:	00 e0       	ldi	r16, 0x00	; 0
     10c:	0c bf       	out	0x3c, r16	; 60

0000010e <__do_copy_data>:
     10e:	14 e0       	ldi	r17, 0x04	; 4
     110:	a0 e0       	ldi	r26, 0x00	; 0
     112:	b2 e0       	ldi	r27, 0x02	; 2
     114:	e6 ed       	ldi	r30, 0xD6	; 214
     116:	f6 e2       	ldi	r31, 0x26	; 38
     118:	00 e0       	ldi	r16, 0x00	; 0
     11a:	0b bf       	out	0x3b, r16	; 59
     11c:	02 c0       	rjmp	.+4      	; 0x122 <__do_copy_data+0x14>
     11e:	07 90       	elpm	r0, Z+
     120:	0d 92       	st	X+, r0
     122:	ac 3a       	cpi	r26, 0xAC	; 172
     124:	b1 07       	cpc	r27, r17
     126:	d9 f7       	brne	.-10     	; 0x11e <__do_copy_data+0x10>

00000128 <__do_clear_bss>:
     128:	25 e0       	ldi	r18, 0x05	; 5
     12a:	ac ea       	ldi	r26, 0xAC	; 172
     12c:	b4 e0       	ldi	r27, 0x04	; 4
     12e:	01 c0       	rjmp	.+2      	; 0x132 <.do_clear_bss_start>

00000130 <.do_clear_bss_loop>:
     130:	1d 92       	st	X+, r1

00000132 <.do_clear_bss_start>:
     132:	aa 32       	cpi	r26, 0x2A	; 42
     134:	b2 07       	cpc	r27, r18
     136:	e1 f7       	brne	.-8      	; 0x130 <.do_clear_bss_loop>
     138:	03 d0       	rcall	.+6      	; 0x140 <main>
     13a:	0c 94 69 13 	jmp	0x26d2	; 0x26d2 <_exit>

0000013e <__bad_interrupt>:
     13e:	60 cf       	rjmp	.-320    	; 0x0 <__vectors>

00000140 <main>:
#define MASKE_WASSER (1<<2)

#define MASKE_JOYSTICK (1<<2)

int main(void)
{
     140:	cf 93       	push	r28
     142:	df 93       	push	r29
     144:	cd b7       	in	r28, 0x3d	; 61
     146:	de b7       	in	r29, 0x3e	; 62
     148:	c7 57       	subi	r28, 0x77	; 119
     14a:	d1 09       	sbc	r29, r1
     14c:	0f b6       	in	r0, 0x3f	; 63
     14e:	f8 94       	cli
     150:	de bf       	out	0x3e, r29	; 62
     152:	0f be       	out	0x3f, r0	; 63
     154:	cd bf       	out	0x3d, r28	; 61

	typedef enum {NOTAUS,AUS,EIN,Programmwahl,Wartung,Premium,Intensiv,Schnell,Vorwaesche,Hauptwaesche,Spuelen,Trocknen,Fehler,Pause,Ventil_Test,Trockner_Test,Buersten_Test,Wasserpumpne_Test} zustand_t;
	zustand_t zustand = AUS;
	
	initBoard(0);
     156:	80 e0       	ldi	r24, 0x00	; 0
     158:	0e 94 42 0e 	call	0x1c84	; 0x1c84 <initBoard>
	char * states [] = {"Notaus      ","Aus         ","Ein         ","Programmwahl","Wartung     ","Premium     ","Intensiv    ","Schnell     ","Vorwaesche  ","Hauptwaesche","Spuelen     ","Trocknen    ","Fehler!","Pause","Ventil Test","Trockner Test","Buersten Test","Wasserpumpen Test"};
     15c:	84 e2       	ldi	r24, 0x24	; 36
     15e:	e0 e0       	ldi	r30, 0x00	; 0
     160:	f2 e0       	ldi	r31, 0x02	; 2
     162:	de 01       	movw	r26, r28
     164:	11 96       	adiw	r26, 0x01	; 1
     166:	01 90       	ld	r0, Z+
     168:	0d 92       	st	X+, r0
     16a:	8a 95       	dec	r24
     16c:	e1 f7       	brne	.-8      	; 0x166 <main+0x26>
	char *choices [] = {"Premium :","Intensiv:","Schnell :","Back    :"};
     16e:	88 e0       	ldi	r24, 0x08	; 8
     170:	e4 e2       	ldi	r30, 0x24	; 36
     172:	f2 e0       	ldi	r31, 0x02	; 2
     174:	de 01       	movw	r26, r28
     176:	95 96       	adiw	r26, 0x25	; 37
     178:	01 90       	ld	r0, Z+
     17a:	0d 92       	st	X+, r0
     17c:	8a 95       	dec	r24
     17e:	e1 f7       	brne	.-8      	; 0x178 <main+0x38>
	char *wartungen [] = {"Ventil Test      :","Trocknet Test    :","Buersten Test    :","Wasserpumpen Test:","Back             :"};
     180:	8a e0       	ldi	r24, 0x0A	; 10
     182:	ec e2       	ldi	r30, 0x2C	; 44
     184:	f2 e0       	ldi	r31, 0x02	; 2
     186:	de 01       	movw	r26, r28
     188:	9d 96       	adiw	r26, 0x2d	; 45
     18a:	01 90       	ld	r0, Z+
     18c:	0d 92       	st	X+, r0
     18e:	8a 95       	dec	r24
     190:	e1 f7       	brne	.-8      	; 0x18a <main+0x4a>
	uint8_t joystick_flank = 0;
	uint8_t joystick_posflank = 0;
	uint8_t button = 0;
	uint8_t joystik_button = 0;
	
	uint8_t programmwahl_position = 0;
     192:	68 96       	adiw	r28, 0x18	; 24
     194:	1f ae       	std	Y+63, r1	; 0x3f
     196:	68 97       	sbiw	r28, 0x18	; 24
	uint8_t runter_flag = 0;
	uint8_t position = 1;
	uint8_t position_old = 0;
	
	uint8_t joystick_alt = 0;
	uint8_t joystick_neu = 0;
     198:	81 2c       	mov	r8, r1
	uint16_t y = 0;
	uint16_t x = 0;
	uint8_t hoch_flag = 0;
	uint8_t runter_flag = 0;
	uint8_t position = 1;
	uint8_t position_old = 0;
     19a:	67 96       	adiw	r28, 0x17	; 23
     19c:	1f ae       	std	Y+63, r1	; 0x3f
     19e:	67 97       	sbiw	r28, 0x17	; 23
	
	uint16_t y = 0;
	uint16_t x = 0;
	uint8_t hoch_flag = 0;
	uint8_t runter_flag = 0;
	uint8_t position = 1;
     1a0:	11 e0       	ldi	r17, 0x01	; 1
	uint64_t trocknen = 0;
	
	uint16_t y = 0;
	uint16_t x = 0;
	uint8_t hoch_flag = 0;
	uint8_t runter_flag = 0;
     1a2:	27 96       	adiw	r28, 0x07	; 7
     1a4:	1f ae       	std	Y+63, r1	; 0x3f
     1a6:	27 97       	sbiw	r28, 0x07	; 7
	uint64_t spuelen = 0;
	uint64_t trocknen = 0;
	
	uint16_t y = 0;
	uint16_t x = 0;
	uint8_t hoch_flag = 0;
     1a8:	26 96       	adiw	r28, 0x06	; 6
     1aa:	1f ae       	std	Y+63, r1	; 0x3f
     1ac:	26 97       	sbiw	r28, 0x06	; 6
	uint64_t inZeit_ms = 0;
	uint64_t timer = 0;
	uint64_t vorwaesche = 0;
	uint64_t hauptwaesche = 0;
	uint64_t spuelen = 0;
	uint64_t trocknen = 0;
     1ae:	a9 96       	adiw	r28, 0x29	; 41
     1b0:	1f ae       	std	Y+63, r1	; 0x3f
     1b2:	a9 97       	sbiw	r28, 0x29	; 41
     1b4:	aa 96       	adiw	r28, 0x2a	; 42
     1b6:	1f ae       	std	Y+63, r1	; 0x3f
     1b8:	aa 97       	sbiw	r28, 0x2a	; 42
     1ba:	ab 96       	adiw	r28, 0x2b	; 43
     1bc:	1f ae       	std	Y+63, r1	; 0x3f
     1be:	ab 97       	sbiw	r28, 0x2b	; 43
     1c0:	ac 96       	adiw	r28, 0x2c	; 44
     1c2:	1f ae       	std	Y+63, r1	; 0x3f
     1c4:	ac 97       	sbiw	r28, 0x2c	; 44
     1c6:	ad 96       	adiw	r28, 0x2d	; 45
     1c8:	1f ae       	std	Y+63, r1	; 0x3f
     1ca:	ad 97       	sbiw	r28, 0x2d	; 45
     1cc:	ae 96       	adiw	r28, 0x2e	; 46
     1ce:	1f ae       	std	Y+63, r1	; 0x3f
     1d0:	ae 97       	sbiw	r28, 0x2e	; 46
     1d2:	af 96       	adiw	r28, 0x2f	; 47
     1d4:	1f ae       	std	Y+63, r1	; 0x3f
     1d6:	af 97       	sbiw	r28, 0x2f	; 47
     1d8:	e0 96       	adiw	r28, 0x30	; 48
     1da:	1f ae       	std	Y+63, r1	; 0x3f
     1dc:	e0 97       	sbiw	r28, 0x30	; 48
	
	uint64_t inZeit_ms = 0;
	uint64_t timer = 0;
	uint64_t vorwaesche = 0;
	uint64_t hauptwaesche = 0;
	uint64_t spuelen = 0;
     1de:	a1 96       	adiw	r28, 0x21	; 33
     1e0:	1f ae       	std	Y+63, r1	; 0x3f
     1e2:	a1 97       	sbiw	r28, 0x21	; 33
     1e4:	a2 96       	adiw	r28, 0x22	; 34
     1e6:	1f ae       	std	Y+63, r1	; 0x3f
     1e8:	a2 97       	sbiw	r28, 0x22	; 34
     1ea:	a3 96       	adiw	r28, 0x23	; 35
     1ec:	1f ae       	std	Y+63, r1	; 0x3f
     1ee:	a3 97       	sbiw	r28, 0x23	; 35
     1f0:	a4 96       	adiw	r28, 0x24	; 36
     1f2:	1f ae       	std	Y+63, r1	; 0x3f
     1f4:	a4 97       	sbiw	r28, 0x24	; 36
     1f6:	a5 96       	adiw	r28, 0x25	; 37
     1f8:	1f ae       	std	Y+63, r1	; 0x3f
     1fa:	a5 97       	sbiw	r28, 0x25	; 37
     1fc:	a6 96       	adiw	r28, 0x26	; 38
     1fe:	1f ae       	std	Y+63, r1	; 0x3f
     200:	a6 97       	sbiw	r28, 0x26	; 38
     202:	a7 96       	adiw	r28, 0x27	; 39
     204:	1f ae       	std	Y+63, r1	; 0x3f
     206:	a7 97       	sbiw	r28, 0x27	; 39
     208:	a8 96       	adiw	r28, 0x28	; 40
     20a:	1f ae       	std	Y+63, r1	; 0x3f
     20c:	a8 97       	sbiw	r28, 0x28	; 40
	uint8_t inWasser = 0;
	
	uint64_t inZeit_ms = 0;
	uint64_t timer = 0;
	uint64_t vorwaesche = 0;
	uint64_t hauptwaesche = 0;
     20e:	69 96       	adiw	r28, 0x19	; 25
     210:	1f ae       	std	Y+63, r1	; 0x3f
     212:	69 97       	sbiw	r28, 0x19	; 25
     214:	6a 96       	adiw	r28, 0x1a	; 26
     216:	1f ae       	std	Y+63, r1	; 0x3f
     218:	6a 97       	sbiw	r28, 0x1a	; 26
     21a:	6b 96       	adiw	r28, 0x1b	; 27
     21c:	1f ae       	std	Y+63, r1	; 0x3f
     21e:	6b 97       	sbiw	r28, 0x1b	; 27
     220:	6c 96       	adiw	r28, 0x1c	; 28
     222:	1f ae       	std	Y+63, r1	; 0x3f
     224:	6c 97       	sbiw	r28, 0x1c	; 28
     226:	6d 96       	adiw	r28, 0x1d	; 29
     228:	1f ae       	std	Y+63, r1	; 0x3f
     22a:	6d 97       	sbiw	r28, 0x1d	; 29
     22c:	6e 96       	adiw	r28, 0x1e	; 30
     22e:	1f ae       	std	Y+63, r1	; 0x3f
     230:	6e 97       	sbiw	r28, 0x1e	; 30
     232:	6f 96       	adiw	r28, 0x1f	; 31
     234:	1f ae       	std	Y+63, r1	; 0x3f
     236:	6f 97       	sbiw	r28, 0x1f	; 31
     238:	a0 96       	adiw	r28, 0x20	; 32
     23a:	1f ae       	std	Y+63, r1	; 0x3f
     23c:	a0 97       	sbiw	r28, 0x20	; 32
	uint8_t inFahrradsensor = 0;
	uint8_t inWasser = 0;
	
	uint64_t inZeit_ms = 0;
	uint64_t timer = 0;
	uint64_t vorwaesche = 0;
     23e:	e1 96       	adiw	r28, 0x31	; 49
     240:	1f ae       	std	Y+63, r1	; 0x3f
     242:	e1 97       	sbiw	r28, 0x31	; 49
     244:	e2 96       	adiw	r28, 0x32	; 50
     246:	1f ae       	std	Y+63, r1	; 0x3f
     248:	e2 97       	sbiw	r28, 0x32	; 50
     24a:	e3 96       	adiw	r28, 0x33	; 51
     24c:	1f ae       	std	Y+63, r1	; 0x3f
     24e:	e3 97       	sbiw	r28, 0x33	; 51
     250:	e4 96       	adiw	r28, 0x34	; 52
     252:	1f ae       	std	Y+63, r1	; 0x3f
     254:	e4 97       	sbiw	r28, 0x34	; 52
     256:	e5 96       	adiw	r28, 0x35	; 53
     258:	1f ae       	std	Y+63, r1	; 0x3f
     25a:	e5 97       	sbiw	r28, 0x35	; 53
     25c:	e6 96       	adiw	r28, 0x36	; 54
     25e:	1f ae       	std	Y+63, r1	; 0x3f
     260:	e6 97       	sbiw	r28, 0x36	; 54
     262:	e7 96       	adiw	r28, 0x37	; 55
     264:	1f ae       	std	Y+63, r1	; 0x3f
     266:	e7 97       	sbiw	r28, 0x37	; 55
     268:	e8 96       	adiw	r28, 0x38	; 56
     26a:	1f ae       	std	Y+63, r1	; 0x3f
     26c:	e8 97       	sbiw	r28, 0x38	; 56
	uint8_t inEinAus = 0;
	uint8_t inFahrradsensor = 0;
	uint8_t inWasser = 0;
	
	uint64_t inZeit_ms = 0;
	uint64_t timer = 0;
     26e:	2f 96       	adiw	r28, 0x0f	; 15
     270:	1f ae       	std	Y+63, r1	; 0x3f
     272:	2f 97       	sbiw	r28, 0x0f	; 15
     274:	60 96       	adiw	r28, 0x10	; 16
     276:	1f ae       	std	Y+63, r1	; 0x3f
     278:	60 97       	sbiw	r28, 0x10	; 16
     27a:	61 96       	adiw	r28, 0x11	; 17
     27c:	1f ae       	std	Y+63, r1	; 0x3f
     27e:	61 97       	sbiw	r28, 0x11	; 17
     280:	62 96       	adiw	r28, 0x12	; 18
     282:	1f ae       	std	Y+63, r1	; 0x3f
     284:	62 97       	sbiw	r28, 0x12	; 18
     286:	63 96       	adiw	r28, 0x13	; 19
     288:	1f ae       	std	Y+63, r1	; 0x3f
     28a:	63 97       	sbiw	r28, 0x13	; 19
     28c:	64 96       	adiw	r28, 0x14	; 20
     28e:	1f ae       	std	Y+63, r1	; 0x3f
     290:	64 97       	sbiw	r28, 0x14	; 20
     292:	65 96       	adiw	r28, 0x15	; 21
     294:	1f ae       	std	Y+63, r1	; 0x3f
     296:	65 97       	sbiw	r28, 0x15	; 21
     298:	66 96       	adiw	r28, 0x16	; 22
     29a:	1f ae       	std	Y+63, r1	; 0x3f
     29c:	66 97       	sbiw	r28, 0x16	; 22

int main(void)
{

	typedef enum {NOTAUS,AUS,EIN,Programmwahl,Wartung,Premium,Intensiv,Schnell,Vorwaesche,Hauptwaesche,Spuelen,Trocknen,Fehler,Pause,Ventil_Test,Trockner_Test,Buersten_Test,Wasserpumpne_Test} zustand_t;
	zustand_t zustand = AUS;
     29e:	22 24       	eor	r2, r2
     2a0:	23 94       	inc	r2
     2a2:	92 2c       	mov	r9, r2
     2a4:	51 2e       	mov	r5, r17
	uint64_t zwischenspeicher_spu = 0;
	uint64_t zwischenspeicher_tro = 0;
	
    while (1){
//Eingabe
	schalter = PINC;
     2a6:	86 b1       	in	r24, 0x06	; 6
	joystik_button = PINE;
     2a8:	4c b0       	in	r4, 0x0c	; 12
	inNotAus = (schalter & MASKE_NOTAUS)>0;
     2aa:	98 2f       	mov	r25, r24
     2ac:	90 78       	andi	r25, 0x80	; 128
     2ae:	29 2e       	mov	r2, r25
     2b0:	31 2c       	mov	r3, r1
	inEinAus = (schalter & MASKE_EINAUS)>0;
     2b2:	28 2f       	mov	r18, r24
     2b4:	21 70       	andi	r18, 0x01	; 1
     2b6:	2f ab       	std	Y+55, r18	; 0x37
     2b8:	18 ae       	std	Y+56, r1	; 0x38
	inFahrradsensor = (schalter & MASKE_FAHRRADSENSOR)>0;
     2ba:	98 2f       	mov	r25, r24
     2bc:	92 70       	andi	r25, 0x02	; 2
     2be:	29 2f       	mov	r18, r25
     2c0:	30 e0       	ldi	r19, 0x00	; 0
     2c2:	23 96       	adiw	r28, 0x03	; 3
     2c4:	3f af       	std	Y+63, r19	; 0x3f
     2c6:	2e af       	std	Y+62, r18	; 0x3e
     2c8:	23 97       	sbiw	r28, 0x03	; 3
	inWasser = (schalter & MASKE_WASSER)>0;
     2ca:	84 70       	andi	r24, 0x04	; 4
     2cc:	28 2f       	mov	r18, r24
     2ce:	30 e0       	ldi	r19, 0x00	; 0
     2d0:	25 96       	adiw	r28, 0x05	; 5
     2d2:	3f af       	std	Y+63, r19	; 0x3f
     2d4:	2e af       	std	Y+62, r18	; 0x3e
     2d6:	25 97       	sbiw	r28, 0x05	; 5
	
	inZeit_ms = getSystemTimeMs();
     2d8:	0e 94 ba 0b 	call	0x1774	; 0x1774 <getSystemTimeMs>
     2dc:	29 af       	std	Y+57, r18	; 0x39
     2de:	3a af       	std	Y+58, r19	; 0x3a
     2e0:	4b af       	std	Y+59, r20	; 0x3b
     2e2:	5c af       	std	Y+60, r21	; 0x3c
     2e4:	6d af       	std	Y+61, r22	; 0x3d
     2e6:	7e af       	std	Y+62, r23	; 0x3e
     2e8:	8f af       	std	Y+63, r24	; 0x3f
     2ea:	21 96       	adiw	r28, 0x01	; 1
     2ec:	9f af       	std	Y+63, r25	; 0x3f
     2ee:	21 97       	sbiw	r28, 0x01	; 1
	
	joystick_alt = joystick_neu;
	joystick_neu = joystik_button;
	joystick_flank = joystick_alt ^ joystick_neu;
     2f0:	88 2d       	mov	r24, r8
     2f2:	84 25       	eor	r24, r4
	joystick_posflank = joystick_flank & joystick_neu;
     2f4:	84 21       	and	r24, r4
	button = (joystick_posflank & MASKE_JOYSTICK)>0;
     2f6:	84 70       	andi	r24, 0x04	; 4
     2f8:	68 2e       	mov	r6, r24
     2fa:	71 2c       	mov	r7, r1
	x = adcRead(ADC_10_JOYSTICK_X);
     2fc:	8a e0       	ldi	r24, 0x0A	; 10
     2fe:	0e 94 e0 0b 	call	0x17c0	; 0x17c0 <adcRead>
	y = adcRead(ADC_11_JOYSTICK_Y);
     302:	8b e0       	ldi	r24, 0x0B	; 11
     304:	0e 94 e0 0b 	call	0x17c0	; 0x17c0 <adcRead>
     308:	8c 01       	movw	r16, r24
	if((y<300)&&(!runter_flag)&&(position<3)){
     30a:	8c 32       	cpi	r24, 0x2C	; 44
     30c:	91 40       	sbci	r25, 0x01	; 1
     30e:	80 f4       	brcc	.+32     	; 0x330 <main+0x1f0>
     310:	27 96       	adiw	r28, 0x07	; 7
     312:	8f ad       	ldd	r24, Y+63	; 0x3f
     314:	27 97       	sbiw	r28, 0x07	; 7
     316:	81 11       	cpse	r24, r1
     318:	0b c0       	rjmp	.+22     	; 0x330 <main+0x1f0>
     31a:	92 e0       	ldi	r25, 0x02	; 2
     31c:	95 15       	cp	r25, r5
     31e:	40 f0       	brcs	.+16     	; 0x330 <main+0x1f0>
		position_old = position;
     320:	67 96       	adiw	r28, 0x17	; 23
     322:	5f ae       	std	Y+63, r5	; 0x3f
     324:	67 97       	sbiw	r28, 0x17	; 23
		position += 1;
     326:	53 94       	inc	r5
		runter_flag = 1;
     328:	21 e0       	ldi	r18, 0x01	; 1
     32a:	27 96       	adiw	r28, 0x07	; 7
     32c:	2f af       	std	Y+63, r18	; 0x3f
     32e:	27 97       	sbiw	r28, 0x07	; 7
	}
	if((y>700)&&(!hoch_flag)&&(position>1)){
     330:	0d 3b       	cpi	r16, 0xBD	; 189
     332:	32 e0       	ldi	r19, 0x02	; 2
     334:	13 07       	cpc	r17, r19
     336:	80 f0       	brcs	.+32     	; 0x358 <main+0x218>
     338:	26 96       	adiw	r28, 0x06	; 6
     33a:	8f ad       	ldd	r24, Y+63	; 0x3f
     33c:	26 97       	sbiw	r28, 0x06	; 6
     33e:	81 11       	cpse	r24, r1
     340:	0b c0       	rjmp	.+22     	; 0x358 <main+0x218>
     342:	91 e0       	ldi	r25, 0x01	; 1
     344:	95 15       	cp	r25, r5
     346:	40 f4       	brcc	.+16     	; 0x358 <main+0x218>
		position_old = position;
     348:	67 96       	adiw	r28, 0x17	; 23
     34a:	5f ae       	std	Y+63, r5	; 0x3f
     34c:	67 97       	sbiw	r28, 0x17	; 23
		position -= 1;
     34e:	5a 94       	dec	r5
		hoch_flag = 1;
     350:	21 e0       	ldi	r18, 0x01	; 1
     352:	26 96       	adiw	r28, 0x06	; 6
     354:	2f af       	std	Y+63, r18	; 0x3f
     356:	26 97       	sbiw	r28, 0x06	; 6
	}
	if((y>400)&&(y<500)){
     358:	c8 01       	movw	r24, r16
     35a:	81 59       	subi	r24, 0x91	; 145
     35c:	91 40       	sbci	r25, 0x01	; 1
     35e:	83 36       	cpi	r24, 0x63	; 99
     360:	91 05       	cpc	r25, r1
     362:	30 f4       	brcc	.+12     	; 0x370 <main+0x230>
		hoch_flag = 0;
		runter_flag = 0;
     364:	27 96       	adiw	r28, 0x07	; 7
     366:	1f ae       	std	Y+63, r1	; 0x3f
     368:	27 97       	sbiw	r28, 0x07	; 7
		position_old = position;
		position -= 1;
		hoch_flag = 1;
	}
	if((y>400)&&(y<500)){
		hoch_flag = 0;
     36a:	26 96       	adiw	r28, 0x06	; 6
     36c:	1f ae       	std	Y+63, r1	; 0x3f
     36e:	26 97       	sbiw	r28, 0x06	; 6
		runter_flag = 0;
	}
	
//Verarbeitung
	switch(zustand){
     370:	89 2d       	mov	r24, r9
     372:	90 e0       	ldi	r25, 0x00	; 0
     374:	8d 30       	cpi	r24, 0x0D	; 13
     376:	91 05       	cpc	r25, r1
     378:	10 f0       	brcs	.+4      	; 0x37e <main+0x23e>
     37a:	0c 94 92 0b 	jmp	0x1724	; 0x1724 <__EEPROM_REGION_LENGTH__+0x724>
     37e:	fc 01       	movw	r30, r24
     380:	88 27       	eor	r24, r24
     382:	ee 58       	subi	r30, 0x8E	; 142
     384:	ff 4f       	sbci	r31, 0xFF	; 255
     386:	8f 4f       	sbci	r24, 0xFF	; 255
     388:	0c 94 f4 0f 	jmp	0x1fe8	; 0x1fe8 <__tablejump2__>
		case NOTAUS://NOTAUS-------------------------------------------------------------------
			if(inNotAus){
     38c:	12 14       	cp	r1, r2
     38e:	13 04       	cpc	r1, r3
     390:	14 f4       	brge	.+4      	; 0x396 <main+0x256>
				zustand = AUS;
     392:	99 24       	eor	r9, r9
     394:	93 94       	inc	r9
			}
			lcdWriteText(1,0,"                    ");
     396:	04 e6       	ldi	r16, 0x64	; 100
     398:	12 e0       	ldi	r17, 0x02	; 2
     39a:	1f 93       	push	r17
     39c:	0f 93       	push	r16
     39e:	1f 92       	push	r1
     3a0:	81 e0       	ldi	r24, 0x01	; 1
     3a2:	8f 93       	push	r24
     3a4:	0e 94 cf 0c 	call	0x199e	; 0x199e <lcdWriteText>
			lcdWriteText(2,0,"                    ");
     3a8:	1f 93       	push	r17
     3aa:	0f 93       	push	r16
     3ac:	1f 92       	push	r1
     3ae:	82 e0       	ldi	r24, 0x02	; 2
     3b0:	8f 93       	push	r24
     3b2:	0e 94 cf 0c 	call	0x199e	; 0x199e <lcdWriteText>
			lcdWriteText(3,0,"                    ");
     3b6:	1f 93       	push	r17
     3b8:	0f 93       	push	r16
     3ba:	1f 92       	push	r1
     3bc:	83 e0       	ldi	r24, 0x03	; 3
     3be:	8f 93       	push	r24
     3c0:	0e 94 cf 0c 	call	0x199e	; 0x199e <lcdWriteText>
		break;
     3c4:	0f b6       	in	r0, 0x3f	; 63
     3c6:	f8 94       	cli
     3c8:	de bf       	out	0x3e, r29	; 62
     3ca:	0f be       	out	0x3f, r0	; 63
     3cc:	cd bf       	out	0x3d, r28	; 61
     3ce:	0c 94 92 0b 	jmp	0x1724	; 0x1724 <__EEPROM_REGION_LENGTH__+0x724>
		
		case AUS://AUS----------------------------------------------------------------------------
			if(!inNotAus){
     3d2:	12 14       	cp	r1, r2
     3d4:	13 04       	cpc	r1, r3
     3d6:	0c f0       	brlt	.+2      	; 0x3da <main+0x29a>
				zustand = NOTAUS;
     3d8:	91 2c       	mov	r9, r1
			}
			if(inEinAus){
     3da:	2f a9       	ldd	r18, Y+55	; 0x37
     3dc:	38 ad       	ldd	r19, Y+56	; 0x38
     3de:	12 16       	cp	r1, r18
     3e0:	13 06       	cpc	r1, r19
     3e2:	1c f4       	brge	.+6      	; 0x3ea <main+0x2aa>
				zustand = EIN;
     3e4:	68 94       	set
     3e6:	99 24       	eor	r9, r9
     3e8:	91 f8       	bld	r9, 1
			}
			lcdWriteText(1,0,"                    ");
     3ea:	04 e6       	ldi	r16, 0x64	; 100
     3ec:	12 e0       	ldi	r17, 0x02	; 2
     3ee:	1f 93       	push	r17
     3f0:	0f 93       	push	r16
     3f2:	1f 92       	push	r1
     3f4:	81 e0       	ldi	r24, 0x01	; 1
     3f6:	8f 93       	push	r24
     3f8:	0e 94 cf 0c 	call	0x199e	; 0x199e <lcdWriteText>
			lcdWriteText(2,0,"                    ");
     3fc:	1f 93       	push	r17
     3fe:	0f 93       	push	r16
     400:	1f 92       	push	r1
     402:	82 e0       	ldi	r24, 0x02	; 2
     404:	8f 93       	push	r24
     406:	0e 94 cf 0c 	call	0x199e	; 0x199e <lcdWriteText>
			lcdWriteText(3,0,"                    ");
     40a:	1f 93       	push	r17
     40c:	0f 93       	push	r16
     40e:	1f 92       	push	r1
     410:	83 e0       	ldi	r24, 0x03	; 3
     412:	8f 93       	push	r24
     414:	0e 94 cf 0c 	call	0x199e	; 0x199e <lcdWriteText>
		break;
     418:	0f b6       	in	r0, 0x3f	; 63
     41a:	f8 94       	cli
     41c:	de bf       	out	0x3e, r29	; 62
     41e:	0f be       	out	0x3f, r0	; 63
     420:	cd bf       	out	0x3d, r28	; 61
     422:	0c 94 92 0b 	jmp	0x1724	; 0x1724 <__EEPROM_REGION_LENGTH__+0x724>
		
		case EIN: //EIN-----------------------------------------------------------------------------
			if(!inEinAus){
     426:	2f a9       	ldd	r18, Y+55	; 0x37
     428:	38 ad       	ldd	r19, Y+56	; 0x38
     42a:	12 16       	cp	r1, r18
     42c:	13 06       	cpc	r1, r19
     42e:	14 f0       	brlt	.+4      	; 0x434 <__LOCK_REGION_LENGTH__+0x34>
				zustand = AUS;
     430:	99 24       	eor	r9, r9
     432:	93 94       	inc	r9
			}
			if(!inNotAus){
     434:	12 14       	cp	r1, r2
     436:	13 04       	cpc	r1, r3
     438:	0c f0       	brlt	.+2      	; 0x43c <__LOCK_REGION_LENGTH__+0x3c>
				zustand = NOTAUS;
     43a:	91 2c       	mov	r9, r1
			}
			lcdWriteText(position,13,"x");
     43c:	8b e9       	ldi	r24, 0x9B	; 155
     43e:	92 e0       	ldi	r25, 0x02	; 2
     440:	9f 93       	push	r25
     442:	8f 93       	push	r24
     444:	1d e0       	ldi	r17, 0x0D	; 13
     446:	1f 93       	push	r17
     448:	5f 92       	push	r5
     44a:	0e 94 cf 0c 	call	0x199e	; 0x199e <lcdWriteText>
			lcdWriteText(position_old,13," ");
     44e:	87 e7       	ldi	r24, 0x77	; 119
     450:	92 e0       	ldi	r25, 0x02	; 2
     452:	9f 93       	push	r25
     454:	8f 93       	push	r24
     456:	1f 93       	push	r17
     458:	67 96       	adiw	r28, 0x17	; 23
     45a:	3f ad       	ldd	r19, Y+63	; 0x3f
     45c:	67 97       	sbiw	r28, 0x17	; 23
     45e:	3f 93       	push	r19
     460:	0e 94 cf 0c 	call	0x199e	; 0x199e <lcdWriteText>
			if(inFahrradsensor){
     464:	0f b6       	in	r0, 0x3f	; 63
     466:	f8 94       	cli
     468:	de bf       	out	0x3e, r29	; 62
     46a:	0f be       	out	0x3f, r0	; 63
     46c:	cd bf       	out	0x3d, r28	; 61
     46e:	23 96       	adiw	r28, 0x03	; 3
     470:	2e ad       	ldd	r18, Y+62	; 0x3e
     472:	3f ad       	ldd	r19, Y+63	; 0x3f
     474:	23 97       	sbiw	r28, 0x03	; 3
     476:	12 16       	cp	r1, r18
     478:	13 06       	cpc	r1, r19
     47a:	74 f4       	brge	.+28     	; 0x498 <__LOCK_REGION_LENGTH__+0x98>
				lcdWriteText(2,0,"Programmwahl:");
     47c:	8e e3       	ldi	r24, 0x3E	; 62
     47e:	92 e0       	ldi	r25, 0x02	; 2
     480:	9f 93       	push	r25
     482:	8f 93       	push	r24
     484:	1f 92       	push	r1
     486:	82 e0       	ldi	r24, 0x02	; 2
     488:	8f 93       	push	r24
     48a:	0e 94 cf 0c 	call	0x199e	; 0x199e <lcdWriteText>
     48e:	0f 90       	pop	r0
     490:	0f 90       	pop	r0
     492:	0f 90       	pop	r0
     494:	0f 90       	pop	r0
     496:	0d c0       	rjmp	.+26     	; 0x4b2 <__LOCK_REGION_LENGTH__+0xb2>
			}
			else{
				lcdWriteText(2,0,"             ");
     498:	8b e6       	ldi	r24, 0x6B	; 107
     49a:	92 e0       	ldi	r25, 0x02	; 2
     49c:	9f 93       	push	r25
     49e:	8f 93       	push	r24
     4a0:	1f 92       	push	r1
     4a2:	82 e0       	ldi	r24, 0x02	; 2
     4a4:	8f 93       	push	r24
     4a6:	0e 94 cf 0c 	call	0x199e	; 0x199e <lcdWriteText>
     4aa:	0f 90       	pop	r0
     4ac:	0f 90       	pop	r0
     4ae:	0f 90       	pop	r0
     4b0:	0f 90       	pop	r0
			}
			lcdWriteText(1,0,"Wartung     :");
     4b2:	8c e4       	ldi	r24, 0x4C	; 76
     4b4:	92 e0       	ldi	r25, 0x02	; 2
     4b6:	9f 93       	push	r25
     4b8:	8f 93       	push	r24
     4ba:	1f 92       	push	r1
     4bc:	81 e0       	ldi	r24, 0x01	; 1
     4be:	8f 93       	push	r24
     4c0:	0e 94 cf 0c 	call	0x199e	; 0x199e <lcdWriteText>
			lcdWriteText(3,0,"                    ");
     4c4:	84 e6       	ldi	r24, 0x64	; 100
     4c6:	92 e0       	ldi	r25, 0x02	; 2
     4c8:	9f 93       	push	r25
     4ca:	8f 93       	push	r24
     4cc:	1f 92       	push	r1
     4ce:	83 e0       	ldi	r24, 0x03	; 3
     4d0:	8f 93       	push	r24
     4d2:	0e 94 cf 0c 	call	0x199e	; 0x199e <lcdWriteText>
			if(button&&(position==2)){
     4d6:	0f b6       	in	r0, 0x3f	; 63
     4d8:	f8 94       	cli
     4da:	de bf       	out	0x3e, r29	; 62
     4dc:	0f be       	out	0x3f, r0	; 63
     4de:	cd bf       	out	0x3d, r28	; 61
     4e0:	16 14       	cp	r1, r6
     4e2:	17 04       	cpc	r1, r7
     4e4:	1c f5       	brge	.+70     	; 0x52c <__LOCK_REGION_LENGTH__+0x12c>
     4e6:	92 e0       	ldi	r25, 0x02	; 2
     4e8:	59 12       	cpse	r5, r25
     4ea:	20 c0       	rjmp	.+64     	; 0x52c <__LOCK_REGION_LENGTH__+0x12c>
				zustand = Programmwahl;
				lcdWriteText(1,0,"                              ");
     4ec:	0a e5       	ldi	r16, 0x5A	; 90
     4ee:	12 e0       	ldi	r17, 0x02	; 2
     4f0:	1f 93       	push	r17
     4f2:	0f 93       	push	r16
     4f4:	1f 92       	push	r1
     4f6:	81 e0       	ldi	r24, 0x01	; 1
     4f8:	8f 93       	push	r24
     4fa:	0e 94 cf 0c 	call	0x199e	; 0x199e <lcdWriteText>
				lcdWriteText(2,0,"                              ");
     4fe:	1f 93       	push	r17
     500:	0f 93       	push	r16
     502:	1f 92       	push	r1
     504:	82 e0       	ldi	r24, 0x02	; 2
     506:	8f 93       	push	r24
     508:	0e 94 cf 0c 	call	0x199e	; 0x199e <lcdWriteText>
				lcdWriteText(3,0,"                              ");
     50c:	1f 93       	push	r17
     50e:	0f 93       	push	r16
     510:	1f 92       	push	r1
     512:	83 e0       	ldi	r24, 0x03	; 3
     514:	8f 93       	push	r24
     516:	0e 94 cf 0c 	call	0x199e	; 0x199e <lcdWriteText>
     51a:	0f b6       	in	r0, 0x3f	; 63
     51c:	f8 94       	cli
     51e:	de bf       	out	0x3e, r29	; 62
     520:	0f be       	out	0x3f, r0	; 63
     522:	cd bf       	out	0x3d, r28	; 61
				lcdWriteText(2,0,"             ");
			}
			lcdWriteText(1,0,"Wartung     :");
			lcdWriteText(3,0,"                    ");
			if(button&&(position==2)){
				zustand = Programmwahl;
     524:	0f 2e       	mov	r0, r31
     526:	f3 e0       	ldi	r31, 0x03	; 3
     528:	9f 2e       	mov	r9, r31
     52a:	f0 2d       	mov	r31, r0
				lcdWriteText(1,0,"                              ");
				lcdWriteText(2,0,"                              ");
				lcdWriteText(3,0,"                              ");
			}
			programmwahl_position = 0;
						if(button&&(position==1)){
     52c:	16 14       	cp	r1, r6
     52e:	17 04       	cpc	r1, r7
     530:	14 f0       	brlt	.+4      	; 0x536 <__LOCK_REGION_LENGTH__+0x136>
     532:	0c 94 7a 0b 	jmp	0x16f4	; 0x16f4 <__EEPROM_REGION_LENGTH__+0x6f4>
     536:	31 e0       	ldi	r19, 0x01	; 1
     538:	53 12       	cpse	r5, r19
     53a:	0c 94 7e 0b 	jmp	0x16fc	; 0x16fc <__EEPROM_REGION_LENGTH__+0x6fc>
							lcdWriteText(1,0,"                    ");
     53e:	84 e6       	ldi	r24, 0x64	; 100
     540:	92 e0       	ldi	r25, 0x02	; 2
     542:	9f 93       	push	r25
     544:	8f 93       	push	r24
     546:	1f 92       	push	r1
     548:	81 e0       	ldi	r24, 0x01	; 1
     54a:	8f 93       	push	r24
     54c:	0e 94 cf 0c 	call	0x199e	; 0x199e <lcdWriteText>
							lcdWriteText(2,0,"                              ");
     550:	8a e5       	ldi	r24, 0x5A	; 90
     552:	92 e0       	ldi	r25, 0x02	; 2
     554:	9f 93       	push	r25
     556:	8f 93       	push	r24
     558:	1f 92       	push	r1
     55a:	82 e0       	ldi	r24, 0x02	; 2
     55c:	8f 93       	push	r24
     55e:	0e 94 cf 0c 	call	0x199e	; 0x199e <lcdWriteText>
     562:	0f b6       	in	r0, 0x3f	; 63
     564:	f8 94       	cli
     566:	de bf       	out	0x3e, r29	; 62
     568:	0f be       	out	0x3f, r0	; 63
     56a:	cd bf       	out	0x3d, r28	; 61
				zustand = Programmwahl;
				lcdWriteText(1,0,"                              ");
				lcdWriteText(2,0,"                              ");
				lcdWriteText(3,0,"                              ");
			}
			programmwahl_position = 0;
     56c:	68 96       	adiw	r28, 0x18	; 24
     56e:	1f ae       	std	Y+63, r1	; 0x3f
     570:	68 97       	sbiw	r28, 0x18	; 24
						if(button&&(position==1)){
							lcdWriteText(1,0,"                    ");
							lcdWriteText(2,0,"                              ");
							zustand = Wartung;
     572:	68 94       	set
     574:	99 24       	eor	r9, r9
     576:	92 f8       	bld	r9, 2
     578:	0c 94 92 0b 	jmp	0x1724	; 0x1724 <__EEPROM_REGION_LENGTH__+0x724>
						}
		break;
		
		case Programmwahl://Programmwahl-----------------------------------------------------------------------
			if(!inFahrradsensor){
     57c:	23 96       	adiw	r28, 0x03	; 3
     57e:	2e ad       	ldd	r18, Y+62	; 0x3e
     580:	3f ad       	ldd	r19, Y+63	; 0x3f
     582:	23 97       	sbiw	r28, 0x03	; 3
     584:	12 16       	cp	r1, r18
     586:	13 06       	cpc	r1, r19
     588:	1c f0       	brlt	.+6      	; 0x590 <__LOCK_REGION_LENGTH__+0x190>
				zustand = EIN;
     58a:	68 94       	set
     58c:	99 24       	eor	r9, r9
     58e:	91 f8       	bld	r9, 1
			}
			if(!inEinAus){
     590:	8f a9       	ldd	r24, Y+55	; 0x37
     592:	98 ad       	ldd	r25, Y+56	; 0x38
     594:	18 16       	cp	r1, r24
     596:	19 06       	cpc	r1, r25
     598:	14 f0       	brlt	.+4      	; 0x59e <__LOCK_REGION_LENGTH__+0x19e>
				zustand = AUS;
     59a:	99 24       	eor	r9, r9
     59c:	93 94       	inc	r9
			}
			if(!inNotAus){
     59e:	12 14       	cp	r1, r2
     5a0:	13 04       	cpc	r1, r3
     5a2:	0c f0       	brlt	.+2      	; 0x5a6 <__LOCK_REGION_LENGTH__+0x1a6>
				zustand = NOTAUS;
     5a4:	91 2c       	mov	r9, r1
			}
			lcdWriteText(1,0,choices[programmwahl_position]);
     5a6:	68 96       	adiw	r28, 0x18	; 24
     5a8:	9f ad       	ldd	r25, Y+63	; 0x3f
     5aa:	68 97       	sbiw	r28, 0x18	; 24
     5ac:	e9 2e       	mov	r14, r25
     5ae:	f1 2c       	mov	r15, r1
     5b0:	f7 01       	movw	r30, r14
     5b2:	ee 0f       	add	r30, r30
     5b4:	ff 1f       	adc	r31, r31
     5b6:	21 e0       	ldi	r18, 0x01	; 1
     5b8:	30 e0       	ldi	r19, 0x00	; 0
     5ba:	2c 0f       	add	r18, r28
     5bc:	3d 1f       	adc	r19, r29
     5be:	e2 0f       	add	r30, r18
     5c0:	f3 1f       	adc	r31, r19
     5c2:	84 a1       	ldd	r24, Z+36	; 0x24
     5c4:	95 a1       	ldd	r25, Z+37	; 0x25
     5c6:	9f 93       	push	r25
     5c8:	8f 93       	push	r24
     5ca:	1f 92       	push	r1
     5cc:	81 e0       	ldi	r24, 0x01	; 1
     5ce:	8f 93       	push	r24
     5d0:	0e 94 cf 0c 	call	0x199e	; 0x199e <lcdWriteText>
			lcdWriteText(2,0,choices[programmwahl_position+1]);
     5d4:	f7 01       	movw	r30, r14
     5d6:	31 96       	adiw	r30, 0x01	; 1
     5d8:	ee 0f       	add	r30, r30
     5da:	ff 1f       	adc	r31, r31
     5dc:	81 e0       	ldi	r24, 0x01	; 1
     5de:	90 e0       	ldi	r25, 0x00	; 0
     5e0:	8c 0f       	add	r24, r28
     5e2:	9d 1f       	adc	r25, r29
     5e4:	e8 0f       	add	r30, r24
     5e6:	f9 1f       	adc	r31, r25
     5e8:	84 a1       	ldd	r24, Z+36	; 0x24
     5ea:	95 a1       	ldd	r25, Z+37	; 0x25
     5ec:	9f 93       	push	r25
     5ee:	8f 93       	push	r24
     5f0:	1f 92       	push	r1
     5f2:	82 e0       	ldi	r24, 0x02	; 2
     5f4:	8f 93       	push	r24
     5f6:	0e 94 cf 0c 	call	0x199e	; 0x199e <lcdWriteText>
			lcdWriteText(3,0,choices[programmwahl_position+2]);
     5fa:	f7 01       	movw	r30, r14
     5fc:	32 96       	adiw	r30, 0x02	; 2
     5fe:	ee 0f       	add	r30, r30
     600:	ff 1f       	adc	r31, r31
     602:	21 e0       	ldi	r18, 0x01	; 1
     604:	30 e0       	ldi	r19, 0x00	; 0
     606:	2c 0f       	add	r18, r28
     608:	3d 1f       	adc	r19, r29
     60a:	e2 0f       	add	r30, r18
     60c:	f3 1f       	adc	r31, r19
     60e:	84 a1       	ldd	r24, Z+36	; 0x24
     610:	95 a1       	ldd	r25, Z+37	; 0x25
     612:	9f 93       	push	r25
     614:	8f 93       	push	r24
     616:	1f 92       	push	r1
     618:	83 e0       	ldi	r24, 0x03	; 3
     61a:	8f 93       	push	r24
     61c:	0e 94 cf 0c 	call	0x199e	; 0x199e <lcdWriteText>
			
			lcdWriteText(position,9,"x");
     620:	8b e9       	ldi	r24, 0x9B	; 155
     622:	92 e0       	ldi	r25, 0x02	; 2
     624:	9f 93       	push	r25
     626:	8f 93       	push	r24
     628:	0f 2e       	mov	r0, r31
     62a:	f9 e0       	ldi	r31, 0x09	; 9
     62c:	ff 2e       	mov	r15, r31
     62e:	f0 2d       	mov	r31, r0
     630:	ff 92       	push	r15
     632:	5f 92       	push	r5
     634:	0e 94 cf 0c 	call	0x199e	; 0x199e <lcdWriteText>
			lcdWriteText(position_old,9," ");
     638:	87 e7       	ldi	r24, 0x77	; 119
     63a:	92 e0       	ldi	r25, 0x02	; 2
     63c:	9f 93       	push	r25
     63e:	8f 93       	push	r24
     640:	ff 92       	push	r15
     642:	67 96       	adiw	r28, 0x17	; 23
     644:	3f ad       	ldd	r19, Y+63	; 0x3f
     646:	67 97       	sbiw	r28, 0x17	; 23
     648:	3f 93       	push	r19
     64a:	0e 94 cf 0c 	call	0x199e	; 0x199e <lcdWriteText>
			if((position==3)&&(y<300)&&(!programmwahl_position)&&(!runter_flag)){
     64e:	0f b6       	in	r0, 0x3f	; 63
     650:	f8 94       	cli
     652:	de bf       	out	0x3e, r29	; 62
     654:	0f be       	out	0x3f, r0	; 63
     656:	cd bf       	out	0x3d, r28	; 61
     658:	93 e0       	ldi	r25, 0x03	; 3
     65a:	59 12       	cpse	r5, r25
     65c:	12 c0       	rjmp	.+36     	; 0x682 <__LOCK_REGION_LENGTH__+0x282>
     65e:	0c 32       	cpi	r16, 0x2C	; 44
     660:	21 e0       	ldi	r18, 0x01	; 1
     662:	12 07       	cpc	r17, r18
     664:	70 f4       	brcc	.+28     	; 0x682 <__LOCK_REGION_LENGTH__+0x282>
     666:	68 96       	adiw	r28, 0x18	; 24
     668:	3f ad       	ldd	r19, Y+63	; 0x3f
     66a:	68 97       	sbiw	r28, 0x18	; 24
     66c:	31 11       	cpse	r19, r1
     66e:	09 c0       	rjmp	.+18     	; 0x682 <__LOCK_REGION_LENGTH__+0x282>
     670:	27 96       	adiw	r28, 0x07	; 7
     672:	8f ad       	ldd	r24, Y+63	; 0x3f
     674:	27 97       	sbiw	r28, 0x07	; 7
     676:	81 11       	cpse	r24, r1
     678:	04 c0       	rjmp	.+8      	; 0x682 <__LOCK_REGION_LENGTH__+0x282>
				programmwahl_position += 1;
     67a:	3f 5f       	subi	r19, 0xFF	; 255
     67c:	68 96       	adiw	r28, 0x18	; 24
     67e:	3f af       	std	Y+63, r19	; 0x3f
     680:	68 97       	sbiw	r28, 0x18	; 24
			}
			if((position==1)&&(y>700)&&(programmwahl_position)&&(!hoch_flag)){
     682:	91 e0       	ldi	r25, 0x01	; 1
     684:	59 12       	cpse	r5, r25
     686:	11 c0       	rjmp	.+34     	; 0x6aa <__LOCK_REGION_LENGTH__+0x2aa>
     688:	0d 3b       	cpi	r16, 0xBD	; 189
     68a:	12 40       	sbci	r17, 0x02	; 2
     68c:	70 f0       	brcs	.+28     	; 0x6aa <__LOCK_REGION_LENGTH__+0x2aa>
     68e:	68 96       	adiw	r28, 0x18	; 24
     690:	3f ad       	ldd	r19, Y+63	; 0x3f
     692:	68 97       	sbiw	r28, 0x18	; 24
     694:	33 23       	and	r19, r19
     696:	49 f0       	breq	.+18     	; 0x6aa <__LOCK_REGION_LENGTH__+0x2aa>
     698:	26 96       	adiw	r28, 0x06	; 6
     69a:	8f ad       	ldd	r24, Y+63	; 0x3f
     69c:	26 97       	sbiw	r28, 0x06	; 6
     69e:	81 11       	cpse	r24, r1
     6a0:	04 c0       	rjmp	.+8      	; 0x6aa <__LOCK_REGION_LENGTH__+0x2aa>
				programmwahl_position -= 1;
     6a2:	31 50       	subi	r19, 0x01	; 1
     6a4:	68 96       	adiw	r28, 0x18	; 24
     6a6:	3f af       	std	Y+63, r19	; 0x3f
     6a8:	68 97       	sbiw	r28, 0x18	; 24
			}
			
			if((position==3)&&button&&programmwahl_position){
     6aa:	93 e0       	ldi	r25, 0x03	; 3
     6ac:	59 12       	cpse	r5, r25
     6ae:	27 c0       	rjmp	.+78     	; 0x6fe <__LOCK_REGION_LENGTH__+0x2fe>
     6b0:	16 14       	cp	r1, r6
     6b2:	17 04       	cpc	r1, r7
     6b4:	24 f5       	brge	.+72     	; 0x6fe <__LOCK_REGION_LENGTH__+0x2fe>
     6b6:	68 96       	adiw	r28, 0x18	; 24
     6b8:	2f ad       	ldd	r18, Y+63	; 0x3f
     6ba:	68 97       	sbiw	r28, 0x18	; 24
     6bc:	22 23       	and	r18, r18
     6be:	f9 f0       	breq	.+62     	; 0x6fe <__LOCK_REGION_LENGTH__+0x2fe>
				lcdWriteText(1,0,"                              ");
     6c0:	0a e5       	ldi	r16, 0x5A	; 90
     6c2:	12 e0       	ldi	r17, 0x02	; 2
     6c4:	1f 93       	push	r17
     6c6:	0f 93       	push	r16
     6c8:	1f 92       	push	r1
     6ca:	81 e0       	ldi	r24, 0x01	; 1
     6cc:	8f 93       	push	r24
     6ce:	0e 94 cf 0c 	call	0x199e	; 0x199e <lcdWriteText>
				lcdWriteText(2,0,"                              ");
     6d2:	1f 93       	push	r17
     6d4:	0f 93       	push	r16
     6d6:	1f 92       	push	r1
     6d8:	82 e0       	ldi	r24, 0x02	; 2
     6da:	8f 93       	push	r24
     6dc:	0e 94 cf 0c 	call	0x199e	; 0x199e <lcdWriteText>
				lcdWriteText(3,0,"                              ");
     6e0:	1f 93       	push	r17
     6e2:	0f 93       	push	r16
     6e4:	1f 92       	push	r1
     6e6:	83 e0       	ldi	r24, 0x03	; 3
     6e8:	8f 93       	push	r24
     6ea:	0e 94 cf 0c 	call	0x199e	; 0x199e <lcdWriteText>
     6ee:	0f b6       	in	r0, 0x3f	; 63
     6f0:	f8 94       	cli
     6f2:	de bf       	out	0x3e, r29	; 62
     6f4:	0f be       	out	0x3f, r0	; 63
     6f6:	cd bf       	out	0x3d, r28	; 61
				zustand = EIN;
     6f8:	68 94       	set
     6fa:	99 24       	eor	r9, r9
     6fc:	91 f8       	bld	r9, 1
			}
			if((position==1)&&button&&(!programmwahl_position)){
     6fe:	91 e0       	ldi	r25, 0x01	; 1
     700:	59 12       	cpse	r5, r25
     702:	28 c0       	rjmp	.+80     	; 0x754 <__LOCK_REGION_LENGTH__+0x354>
     704:	16 14       	cp	r1, r6
     706:	17 04       	cpc	r1, r7
     708:	2c f5       	brge	.+74     	; 0x754 <__LOCK_REGION_LENGTH__+0x354>
     70a:	68 96       	adiw	r28, 0x18	; 24
     70c:	2f ad       	ldd	r18, Y+63	; 0x3f
     70e:	68 97       	sbiw	r28, 0x18	; 24
     710:	21 11       	cpse	r18, r1
     712:	20 c0       	rjmp	.+64     	; 0x754 <__LOCK_REGION_LENGTH__+0x354>
				lcdWriteText(1,0,"                              ");
     714:	0a e5       	ldi	r16, 0x5A	; 90
     716:	12 e0       	ldi	r17, 0x02	; 2
     718:	1f 93       	push	r17
     71a:	0f 93       	push	r16
     71c:	1f 92       	push	r1
     71e:	81 e0       	ldi	r24, 0x01	; 1
     720:	8f 93       	push	r24
     722:	0e 94 cf 0c 	call	0x199e	; 0x199e <lcdWriteText>
				lcdWriteText(2,0,"                              ");
     726:	1f 93       	push	r17
     728:	0f 93       	push	r16
     72a:	1f 92       	push	r1
     72c:	82 e0       	ldi	r24, 0x02	; 2
     72e:	8f 93       	push	r24
     730:	0e 94 cf 0c 	call	0x199e	; 0x199e <lcdWriteText>
				lcdWriteText(3,0,"                              ");
     734:	1f 93       	push	r17
     736:	0f 93       	push	r16
     738:	1f 92       	push	r1
     73a:	83 e0       	ldi	r24, 0x03	; 3
     73c:	8f 93       	push	r24
     73e:	0e 94 cf 0c 	call	0x199e	; 0x199e <lcdWriteText>
     742:	0f b6       	in	r0, 0x3f	; 63
     744:	f8 94       	cli
     746:	de bf       	out	0x3e, r29	; 62
     748:	0f be       	out	0x3f, r0	; 63
     74a:	cd bf       	out	0x3d, r28	; 61
				zustand = Premium;
     74c:	0f 2e       	mov	r0, r31
     74e:	f5 e0       	ldi	r31, 0x05	; 5
     750:	9f 2e       	mov	r9, r31
     752:	f0 2d       	mov	r31, r0
			}
			if((position==2)&&button&&(!programmwahl_position)){
     754:	92 e0       	ldi	r25, 0x02	; 2
     756:	59 12       	cpse	r5, r25
     758:	28 c0       	rjmp	.+80     	; 0x7aa <__LOCK_REGION_LENGTH__+0x3aa>
     75a:	16 14       	cp	r1, r6
     75c:	17 04       	cpc	r1, r7
     75e:	2c f5       	brge	.+74     	; 0x7aa <__LOCK_REGION_LENGTH__+0x3aa>
     760:	68 96       	adiw	r28, 0x18	; 24
     762:	2f ad       	ldd	r18, Y+63	; 0x3f
     764:	68 97       	sbiw	r28, 0x18	; 24
     766:	21 11       	cpse	r18, r1
     768:	20 c0       	rjmp	.+64     	; 0x7aa <__LOCK_REGION_LENGTH__+0x3aa>
				lcdWriteText(1,0,"                              ");
     76a:	0a e5       	ldi	r16, 0x5A	; 90
     76c:	12 e0       	ldi	r17, 0x02	; 2
     76e:	1f 93       	push	r17
     770:	0f 93       	push	r16
     772:	1f 92       	push	r1
     774:	81 e0       	ldi	r24, 0x01	; 1
     776:	8f 93       	push	r24
     778:	0e 94 cf 0c 	call	0x199e	; 0x199e <lcdWriteText>
				lcdWriteText(2,0,"                              ");
     77c:	1f 93       	push	r17
     77e:	0f 93       	push	r16
     780:	1f 92       	push	r1
     782:	82 e0       	ldi	r24, 0x02	; 2
     784:	8f 93       	push	r24
     786:	0e 94 cf 0c 	call	0x199e	; 0x199e <lcdWriteText>
				lcdWriteText(3,0,"                              ");
     78a:	1f 93       	push	r17
     78c:	0f 93       	push	r16
     78e:	1f 92       	push	r1
     790:	83 e0       	ldi	r24, 0x03	; 3
     792:	8f 93       	push	r24
     794:	0e 94 cf 0c 	call	0x199e	; 0x199e <lcdWriteText>
     798:	0f b6       	in	r0, 0x3f	; 63
     79a:	f8 94       	cli
     79c:	de bf       	out	0x3e, r29	; 62
     79e:	0f be       	out	0x3f, r0	; 63
     7a0:	cd bf       	out	0x3d, r28	; 61
				zustand = Intensiv;
     7a2:	0f 2e       	mov	r0, r31
     7a4:	f6 e0       	ldi	r31, 0x06	; 6
     7a6:	9f 2e       	mov	r9, r31
     7a8:	f0 2d       	mov	r31, r0
			}
			if((position==1)&&button&&(programmwahl_position)){
     7aa:	91 e0       	ldi	r25, 0x01	; 1
     7ac:	59 12       	cpse	r5, r25
     7ae:	28 c0       	rjmp	.+80     	; 0x800 <__LOCK_REGION_LENGTH__+0x400>
     7b0:	16 14       	cp	r1, r6
     7b2:	17 04       	cpc	r1, r7
     7b4:	2c f5       	brge	.+74     	; 0x800 <__LOCK_REGION_LENGTH__+0x400>
     7b6:	68 96       	adiw	r28, 0x18	; 24
     7b8:	2f ad       	ldd	r18, Y+63	; 0x3f
     7ba:	68 97       	sbiw	r28, 0x18	; 24
     7bc:	22 23       	and	r18, r18
     7be:	01 f1       	breq	.+64     	; 0x800 <__LOCK_REGION_LENGTH__+0x400>
				lcdWriteText(1,0,"                              ");
     7c0:	0a e5       	ldi	r16, 0x5A	; 90
     7c2:	12 e0       	ldi	r17, 0x02	; 2
     7c4:	1f 93       	push	r17
     7c6:	0f 93       	push	r16
     7c8:	1f 92       	push	r1
     7ca:	81 e0       	ldi	r24, 0x01	; 1
     7cc:	8f 93       	push	r24
     7ce:	0e 94 cf 0c 	call	0x199e	; 0x199e <lcdWriteText>
				lcdWriteText(2,0,"                              ");
     7d2:	1f 93       	push	r17
     7d4:	0f 93       	push	r16
     7d6:	1f 92       	push	r1
     7d8:	82 e0       	ldi	r24, 0x02	; 2
     7da:	8f 93       	push	r24
     7dc:	0e 94 cf 0c 	call	0x199e	; 0x199e <lcdWriteText>
				lcdWriteText(3,0,"                              ");
     7e0:	1f 93       	push	r17
     7e2:	0f 93       	push	r16
     7e4:	1f 92       	push	r1
     7e6:	83 e0       	ldi	r24, 0x03	; 3
     7e8:	8f 93       	push	r24
     7ea:	0e 94 cf 0c 	call	0x199e	; 0x199e <lcdWriteText>
     7ee:	0f b6       	in	r0, 0x3f	; 63
     7f0:	f8 94       	cli
     7f2:	de bf       	out	0x3e, r29	; 62
     7f4:	0f be       	out	0x3f, r0	; 63
     7f6:	cd bf       	out	0x3d, r28	; 61
				zustand = Intensiv;
     7f8:	0f 2e       	mov	r0, r31
     7fa:	f6 e0       	ldi	r31, 0x06	; 6
     7fc:	9f 2e       	mov	r9, r31
     7fe:	f0 2d       	mov	r31, r0
			}
			if((position==3)&&button&&(!programmwahl_position)){
     800:	93 e0       	ldi	r25, 0x03	; 3
     802:	59 12       	cpse	r5, r25
     804:	28 c0       	rjmp	.+80     	; 0x856 <__LOCK_REGION_LENGTH__+0x456>
     806:	16 14       	cp	r1, r6
     808:	17 04       	cpc	r1, r7
     80a:	2c f5       	brge	.+74     	; 0x856 <__LOCK_REGION_LENGTH__+0x456>
     80c:	68 96       	adiw	r28, 0x18	; 24
     80e:	2f ad       	ldd	r18, Y+63	; 0x3f
     810:	68 97       	sbiw	r28, 0x18	; 24
     812:	21 11       	cpse	r18, r1
     814:	20 c0       	rjmp	.+64     	; 0x856 <__LOCK_REGION_LENGTH__+0x456>
				lcdWriteText(1,0,"                              ");
     816:	0a e5       	ldi	r16, 0x5A	; 90
     818:	12 e0       	ldi	r17, 0x02	; 2
     81a:	1f 93       	push	r17
     81c:	0f 93       	push	r16
     81e:	1f 92       	push	r1
     820:	81 e0       	ldi	r24, 0x01	; 1
     822:	8f 93       	push	r24
     824:	0e 94 cf 0c 	call	0x199e	; 0x199e <lcdWriteText>
				lcdWriteText(2,0,"                              ");
     828:	1f 93       	push	r17
     82a:	0f 93       	push	r16
     82c:	1f 92       	push	r1
     82e:	82 e0       	ldi	r24, 0x02	; 2
     830:	8f 93       	push	r24
     832:	0e 94 cf 0c 	call	0x199e	; 0x199e <lcdWriteText>
				lcdWriteText(3,0,"                              ");
     836:	1f 93       	push	r17
     838:	0f 93       	push	r16
     83a:	1f 92       	push	r1
     83c:	83 e0       	ldi	r24, 0x03	; 3
     83e:	8f 93       	push	r24
     840:	0e 94 cf 0c 	call	0x199e	; 0x199e <lcdWriteText>
     844:	0f b6       	in	r0, 0x3f	; 63
     846:	f8 94       	cli
     848:	de bf       	out	0x3e, r29	; 62
     84a:	0f be       	out	0x3f, r0	; 63
     84c:	cd bf       	out	0x3d, r28	; 61
				zustand = Schnell;
     84e:	0f 2e       	mov	r0, r31
     850:	f7 e0       	ldi	r31, 0x07	; 7
     852:	9f 2e       	mov	r9, r31
     854:	f0 2d       	mov	r31, r0
			}
			if((position==2)&&button&&(programmwahl_position)){
     856:	92 e0       	ldi	r25, 0x02	; 2
     858:	59 12       	cpse	r5, r25
     85a:	64 c7       	rjmp	.+3784   	; 0x1724 <__EEPROM_REGION_LENGTH__+0x724>
     85c:	16 14       	cp	r1, r6
     85e:	17 04       	cpc	r1, r7
     860:	0c f0       	brlt	.+2      	; 0x864 <__LOCK_REGION_LENGTH__+0x464>
     862:	60 c7       	rjmp	.+3776   	; 0x1724 <__EEPROM_REGION_LENGTH__+0x724>
     864:	68 96       	adiw	r28, 0x18	; 24
     866:	2f ad       	ldd	r18, Y+63	; 0x3f
     868:	68 97       	sbiw	r28, 0x18	; 24
     86a:	22 23       	and	r18, r18
     86c:	09 f4       	brne	.+2      	; 0x870 <__LOCK_REGION_LENGTH__+0x470>
     86e:	5a c7       	rjmp	.+3764   	; 0x1724 <__EEPROM_REGION_LENGTH__+0x724>
				lcdWriteText(1,0,"                              ");
     870:	0a e5       	ldi	r16, 0x5A	; 90
     872:	12 e0       	ldi	r17, 0x02	; 2
     874:	1f 93       	push	r17
     876:	0f 93       	push	r16
     878:	1f 92       	push	r1
     87a:	81 e0       	ldi	r24, 0x01	; 1
     87c:	8f 93       	push	r24
     87e:	0e 94 cf 0c 	call	0x199e	; 0x199e <lcdWriteText>
				lcdWriteText(2,0,"                              ");
     882:	1f 93       	push	r17
     884:	0f 93       	push	r16
     886:	1f 92       	push	r1
     888:	82 e0       	ldi	r24, 0x02	; 2
     88a:	8f 93       	push	r24
     88c:	0e 94 cf 0c 	call	0x199e	; 0x199e <lcdWriteText>
				lcdWriteText(3,0,"                              ");
     890:	1f 93       	push	r17
     892:	0f 93       	push	r16
     894:	1f 92       	push	r1
     896:	83 e0       	ldi	r24, 0x03	; 3
     898:	8f 93       	push	r24
     89a:	0e 94 cf 0c 	call	0x199e	; 0x199e <lcdWriteText>
     89e:	0f b6       	in	r0, 0x3f	; 63
     8a0:	f8 94       	cli
     8a2:	de bf       	out	0x3e, r29	; 62
     8a4:	0f be       	out	0x3f, r0	; 63
     8a6:	cd bf       	out	0x3d, r28	; 61
				zustand = Schnell;
     8a8:	0f 2e       	mov	r0, r31
     8aa:	f7 e0       	ldi	r31, 0x07	; 7
     8ac:	9f 2e       	mov	r9, r31
     8ae:	f0 2d       	mov	r31, r0
     8b0:	39 c7       	rjmp	.+3698   	; 0x1724 <__EEPROM_REGION_LENGTH__+0x724>
		case Intensiv://-------------------------------------------------------------------------------------
			vorwaesche = 10000;
			hauptwaesche = 30000;
			spuelen = 15000;
			trocknen = 12000;
			timer = inZeit_ms;
     8b2:	99 ad       	ldd	r25, Y+57	; 0x39
     8b4:	2f 96       	adiw	r28, 0x0f	; 15
     8b6:	9f af       	std	Y+63, r25	; 0x3f
     8b8:	2f 97       	sbiw	r28, 0x0f	; 15
     8ba:	2a ad       	ldd	r18, Y+58	; 0x3a
     8bc:	60 96       	adiw	r28, 0x10	; 16
     8be:	2f af       	std	Y+63, r18	; 0x3f
     8c0:	60 97       	sbiw	r28, 0x10	; 16
     8c2:	3b ad       	ldd	r19, Y+59	; 0x3b
     8c4:	61 96       	adiw	r28, 0x11	; 17
     8c6:	3f af       	std	Y+63, r19	; 0x3f
     8c8:	61 97       	sbiw	r28, 0x11	; 17
     8ca:	8c ad       	ldd	r24, Y+60	; 0x3c
     8cc:	62 96       	adiw	r28, 0x12	; 18
     8ce:	8f af       	std	Y+63, r24	; 0x3f
     8d0:	62 97       	sbiw	r28, 0x12	; 18
     8d2:	9d ad       	ldd	r25, Y+61	; 0x3d
     8d4:	63 96       	adiw	r28, 0x13	; 19
     8d6:	9f af       	std	Y+63, r25	; 0x3f
     8d8:	63 97       	sbiw	r28, 0x13	; 19
     8da:	2e ad       	ldd	r18, Y+62	; 0x3e
     8dc:	64 96       	adiw	r28, 0x14	; 20
     8de:	2f af       	std	Y+63, r18	; 0x3f
     8e0:	64 97       	sbiw	r28, 0x14	; 20
     8e2:	3f ad       	ldd	r19, Y+63	; 0x3f
     8e4:	65 96       	adiw	r28, 0x15	; 21
     8e6:	3f af       	std	Y+63, r19	; 0x3f
     8e8:	65 97       	sbiw	r28, 0x15	; 21
     8ea:	21 96       	adiw	r28, 0x01	; 1
     8ec:	8f ad       	ldd	r24, Y+63	; 0x3f
     8ee:	21 97       	sbiw	r28, 0x01	; 1
     8f0:	66 96       	adiw	r28, 0x16	; 22
     8f2:	8f af       	std	Y+63, r24	; 0x3f
     8f4:	66 97       	sbiw	r28, 0x16	; 22
		
		case Intensiv://-------------------------------------------------------------------------------------
			vorwaesche = 10000;
			hauptwaesche = 30000;
			spuelen = 15000;
			trocknen = 12000;
     8f6:	90 ee       	ldi	r25, 0xE0	; 224
     8f8:	a9 96       	adiw	r28, 0x29	; 41
     8fa:	9f af       	std	Y+63, r25	; 0x3f
     8fc:	a9 97       	sbiw	r28, 0x29	; 41
     8fe:	2e e2       	ldi	r18, 0x2E	; 46
     900:	aa 96       	adiw	r28, 0x2a	; 42
     902:	2f af       	std	Y+63, r18	; 0x3f
     904:	aa 97       	sbiw	r28, 0x2a	; 42
     906:	ab 96       	adiw	r28, 0x2b	; 43
     908:	1f ae       	std	Y+63, r1	; 0x3f
     90a:	ab 97       	sbiw	r28, 0x2b	; 43
     90c:	ac 96       	adiw	r28, 0x2c	; 44
     90e:	1f ae       	std	Y+63, r1	; 0x3f
     910:	ac 97       	sbiw	r28, 0x2c	; 44
     912:	ad 96       	adiw	r28, 0x2d	; 45
     914:	1f ae       	std	Y+63, r1	; 0x3f
     916:	ad 97       	sbiw	r28, 0x2d	; 45
     918:	ae 96       	adiw	r28, 0x2e	; 46
     91a:	1f ae       	std	Y+63, r1	; 0x3f
     91c:	ae 97       	sbiw	r28, 0x2e	; 46
     91e:	af 96       	adiw	r28, 0x2f	; 47
     920:	1f ae       	std	Y+63, r1	; 0x3f
     922:	af 97       	sbiw	r28, 0x2f	; 47
     924:	e0 96       	adiw	r28, 0x30	; 48
     926:	1f ae       	std	Y+63, r1	; 0x3f
     928:	e0 97       	sbiw	r28, 0x30	; 48
		break;
		
		case Intensiv://-------------------------------------------------------------------------------------
			vorwaesche = 10000;
			hauptwaesche = 30000;
			spuelen = 15000;
     92a:	38 e9       	ldi	r19, 0x98	; 152
     92c:	a1 96       	adiw	r28, 0x21	; 33
     92e:	3f af       	std	Y+63, r19	; 0x3f
     930:	a1 97       	sbiw	r28, 0x21	; 33
     932:	8a e3       	ldi	r24, 0x3A	; 58
     934:	a2 96       	adiw	r28, 0x22	; 34
     936:	8f af       	std	Y+63, r24	; 0x3f
     938:	a2 97       	sbiw	r28, 0x22	; 34
     93a:	a3 96       	adiw	r28, 0x23	; 35
     93c:	1f ae       	std	Y+63, r1	; 0x3f
     93e:	a3 97       	sbiw	r28, 0x23	; 35
     940:	a4 96       	adiw	r28, 0x24	; 36
     942:	1f ae       	std	Y+63, r1	; 0x3f
     944:	a4 97       	sbiw	r28, 0x24	; 36
     946:	a5 96       	adiw	r28, 0x25	; 37
     948:	1f ae       	std	Y+63, r1	; 0x3f
     94a:	a5 97       	sbiw	r28, 0x25	; 37
     94c:	a6 96       	adiw	r28, 0x26	; 38
     94e:	1f ae       	std	Y+63, r1	; 0x3f
     950:	a6 97       	sbiw	r28, 0x26	; 38
     952:	a7 96       	adiw	r28, 0x27	; 39
     954:	1f ae       	std	Y+63, r1	; 0x3f
     956:	a7 97       	sbiw	r28, 0x27	; 39
     958:	a8 96       	adiw	r28, 0x28	; 40
     95a:	1f ae       	std	Y+63, r1	; 0x3f
     95c:	a8 97       	sbiw	r28, 0x28	; 40
			zustand = Vorwaesche;
		break;
		
		case Intensiv://-------------------------------------------------------------------------------------
			vorwaesche = 10000;
			hauptwaesche = 30000;
     95e:	90 e3       	ldi	r25, 0x30	; 48
     960:	69 96       	adiw	r28, 0x19	; 25
     962:	9f af       	std	Y+63, r25	; 0x3f
     964:	69 97       	sbiw	r28, 0x19	; 25
     966:	25 e7       	ldi	r18, 0x75	; 117
     968:	6a 96       	adiw	r28, 0x1a	; 26
     96a:	2f af       	std	Y+63, r18	; 0x3f
     96c:	6a 97       	sbiw	r28, 0x1a	; 26
     96e:	6b 96       	adiw	r28, 0x1b	; 27
     970:	1f ae       	std	Y+63, r1	; 0x3f
     972:	6b 97       	sbiw	r28, 0x1b	; 27
     974:	6c 96       	adiw	r28, 0x1c	; 28
     976:	1f ae       	std	Y+63, r1	; 0x3f
     978:	6c 97       	sbiw	r28, 0x1c	; 28
     97a:	6d 96       	adiw	r28, 0x1d	; 29
     97c:	1f ae       	std	Y+63, r1	; 0x3f
     97e:	6d 97       	sbiw	r28, 0x1d	; 29
     980:	6e 96       	adiw	r28, 0x1e	; 30
     982:	1f ae       	std	Y+63, r1	; 0x3f
     984:	6e 97       	sbiw	r28, 0x1e	; 30
     986:	6f 96       	adiw	r28, 0x1f	; 31
     988:	1f ae       	std	Y+63, r1	; 0x3f
     98a:	6f 97       	sbiw	r28, 0x1f	; 31
     98c:	a0 96       	adiw	r28, 0x20	; 32
     98e:	1f ae       	std	Y+63, r1	; 0x3f
     990:	a0 97       	sbiw	r28, 0x20	; 32
			timer = inZeit_ms;
			zustand = Vorwaesche;
		break;
		
		case Intensiv://-------------------------------------------------------------------------------------
			vorwaesche = 10000;
     992:	30 e1       	ldi	r19, 0x10	; 16
     994:	e1 96       	adiw	r28, 0x31	; 49
     996:	3f af       	std	Y+63, r19	; 0x3f
     998:	e1 97       	sbiw	r28, 0x31	; 49
     99a:	87 e2       	ldi	r24, 0x27	; 39
     99c:	e2 96       	adiw	r28, 0x32	; 50
     99e:	8f af       	std	Y+63, r24	; 0x3f
     9a0:	e2 97       	sbiw	r28, 0x32	; 50
     9a2:	e3 96       	adiw	r28, 0x33	; 51
     9a4:	1f ae       	std	Y+63, r1	; 0x3f
     9a6:	e3 97       	sbiw	r28, 0x33	; 51
     9a8:	e4 96       	adiw	r28, 0x34	; 52
     9aa:	1f ae       	std	Y+63, r1	; 0x3f
     9ac:	e4 97       	sbiw	r28, 0x34	; 52
     9ae:	e5 96       	adiw	r28, 0x35	; 53
     9b0:	1f ae       	std	Y+63, r1	; 0x3f
     9b2:	e5 97       	sbiw	r28, 0x35	; 53
     9b4:	e6 96       	adiw	r28, 0x36	; 54
     9b6:	1f ae       	std	Y+63, r1	; 0x3f
     9b8:	e6 97       	sbiw	r28, 0x36	; 54
     9ba:	e7 96       	adiw	r28, 0x37	; 55
     9bc:	1f ae       	std	Y+63, r1	; 0x3f
     9be:	e7 97       	sbiw	r28, 0x37	; 55
     9c0:	e8 96       	adiw	r28, 0x38	; 56
     9c2:	1f ae       	std	Y+63, r1	; 0x3f
     9c4:	e8 97       	sbiw	r28, 0x38	; 56
			hauptwaesche = 30000;
			spuelen = 15000;
			trocknen = 12000;
			timer = inZeit_ms;
			zustand = Vorwaesche;
     9c6:	68 94       	set
     9c8:	99 24       	eor	r9, r9
     9ca:	93 f8       	bld	r9, 3
		break;
     9cc:	ab c6       	rjmp	.+3414   	; 0x1724 <__EEPROM_REGION_LENGTH__+0x724>
		
		case Schnell://---------------------------------------------------------------------------------------
			hauptwaesche = 10000;
			spuelen = 5000;
			trocknen = 5000;
			timer = inZeit_ms;
     9ce:	99 ad       	ldd	r25, Y+57	; 0x39
     9d0:	2f 96       	adiw	r28, 0x0f	; 15
     9d2:	9f af       	std	Y+63, r25	; 0x3f
     9d4:	2f 97       	sbiw	r28, 0x0f	; 15
     9d6:	2a ad       	ldd	r18, Y+58	; 0x3a
     9d8:	60 96       	adiw	r28, 0x10	; 16
     9da:	2f af       	std	Y+63, r18	; 0x3f
     9dc:	60 97       	sbiw	r28, 0x10	; 16
     9de:	3b ad       	ldd	r19, Y+59	; 0x3b
     9e0:	61 96       	adiw	r28, 0x11	; 17
     9e2:	3f af       	std	Y+63, r19	; 0x3f
     9e4:	61 97       	sbiw	r28, 0x11	; 17
     9e6:	8c ad       	ldd	r24, Y+60	; 0x3c
     9e8:	62 96       	adiw	r28, 0x12	; 18
     9ea:	8f af       	std	Y+63, r24	; 0x3f
     9ec:	62 97       	sbiw	r28, 0x12	; 18
     9ee:	9d ad       	ldd	r25, Y+61	; 0x3d
     9f0:	63 96       	adiw	r28, 0x13	; 19
     9f2:	9f af       	std	Y+63, r25	; 0x3f
     9f4:	63 97       	sbiw	r28, 0x13	; 19
     9f6:	2e ad       	ldd	r18, Y+62	; 0x3e
     9f8:	64 96       	adiw	r28, 0x14	; 20
     9fa:	2f af       	std	Y+63, r18	; 0x3f
     9fc:	64 97       	sbiw	r28, 0x14	; 20
     9fe:	3f ad       	ldd	r19, Y+63	; 0x3f
     a00:	65 96       	adiw	r28, 0x15	; 21
     a02:	3f af       	std	Y+63, r19	; 0x3f
     a04:	65 97       	sbiw	r28, 0x15	; 21
     a06:	21 96       	adiw	r28, 0x01	; 1
     a08:	8f ad       	ldd	r24, Y+63	; 0x3f
     a0a:	21 97       	sbiw	r28, 0x01	; 1
     a0c:	66 96       	adiw	r28, 0x16	; 22
     a0e:	8f af       	std	Y+63, r24	; 0x3f
     a10:	66 97       	sbiw	r28, 0x16	; 22
		break;
		
		case Schnell://---------------------------------------------------------------------------------------
			hauptwaesche = 10000;
			spuelen = 5000;
			trocknen = 5000;
     a12:	98 e8       	ldi	r25, 0x88	; 136
     a14:	a9 96       	adiw	r28, 0x29	; 41
     a16:	9f af       	std	Y+63, r25	; 0x3f
     a18:	a9 97       	sbiw	r28, 0x29	; 41
     a1a:	23 e1       	ldi	r18, 0x13	; 19
     a1c:	aa 96       	adiw	r28, 0x2a	; 42
     a1e:	2f af       	std	Y+63, r18	; 0x3f
     a20:	aa 97       	sbiw	r28, 0x2a	; 42
     a22:	ab 96       	adiw	r28, 0x2b	; 43
     a24:	1f ae       	std	Y+63, r1	; 0x3f
     a26:	ab 97       	sbiw	r28, 0x2b	; 43
     a28:	ac 96       	adiw	r28, 0x2c	; 44
     a2a:	1f ae       	std	Y+63, r1	; 0x3f
     a2c:	ac 97       	sbiw	r28, 0x2c	; 44
     a2e:	ad 96       	adiw	r28, 0x2d	; 45
     a30:	1f ae       	std	Y+63, r1	; 0x3f
     a32:	ad 97       	sbiw	r28, 0x2d	; 45
     a34:	ae 96       	adiw	r28, 0x2e	; 46
     a36:	1f ae       	std	Y+63, r1	; 0x3f
     a38:	ae 97       	sbiw	r28, 0x2e	; 46
     a3a:	af 96       	adiw	r28, 0x2f	; 47
     a3c:	1f ae       	std	Y+63, r1	; 0x3f
     a3e:	af 97       	sbiw	r28, 0x2f	; 47
     a40:	e0 96       	adiw	r28, 0x30	; 48
     a42:	1f ae       	std	Y+63, r1	; 0x3f
     a44:	e0 97       	sbiw	r28, 0x30	; 48
			zustand = Vorwaesche;
		break;
		
		case Schnell://---------------------------------------------------------------------------------------
			hauptwaesche = 10000;
			spuelen = 5000;
     a46:	38 e8       	ldi	r19, 0x88	; 136
     a48:	a1 96       	adiw	r28, 0x21	; 33
     a4a:	3f af       	std	Y+63, r19	; 0x3f
     a4c:	a1 97       	sbiw	r28, 0x21	; 33
     a4e:	83 e1       	ldi	r24, 0x13	; 19
     a50:	a2 96       	adiw	r28, 0x22	; 34
     a52:	8f af       	std	Y+63, r24	; 0x3f
     a54:	a2 97       	sbiw	r28, 0x22	; 34
     a56:	a3 96       	adiw	r28, 0x23	; 35
     a58:	1f ae       	std	Y+63, r1	; 0x3f
     a5a:	a3 97       	sbiw	r28, 0x23	; 35
     a5c:	a4 96       	adiw	r28, 0x24	; 36
     a5e:	1f ae       	std	Y+63, r1	; 0x3f
     a60:	a4 97       	sbiw	r28, 0x24	; 36
     a62:	a5 96       	adiw	r28, 0x25	; 37
     a64:	1f ae       	std	Y+63, r1	; 0x3f
     a66:	a5 97       	sbiw	r28, 0x25	; 37
     a68:	a6 96       	adiw	r28, 0x26	; 38
     a6a:	1f ae       	std	Y+63, r1	; 0x3f
     a6c:	a6 97       	sbiw	r28, 0x26	; 38
     a6e:	a7 96       	adiw	r28, 0x27	; 39
     a70:	1f ae       	std	Y+63, r1	; 0x3f
     a72:	a7 97       	sbiw	r28, 0x27	; 39
     a74:	a8 96       	adiw	r28, 0x28	; 40
     a76:	1f ae       	std	Y+63, r1	; 0x3f
     a78:	a8 97       	sbiw	r28, 0x28	; 40
			timer = inZeit_ms;
			zustand = Vorwaesche;
		break;
		
		case Schnell://---------------------------------------------------------------------------------------
			hauptwaesche = 10000;
     a7a:	90 e1       	ldi	r25, 0x10	; 16
     a7c:	69 96       	adiw	r28, 0x19	; 25
     a7e:	9f af       	std	Y+63, r25	; 0x3f
     a80:	69 97       	sbiw	r28, 0x19	; 25
     a82:	27 e2       	ldi	r18, 0x27	; 39
     a84:	6a 96       	adiw	r28, 0x1a	; 26
     a86:	2f af       	std	Y+63, r18	; 0x3f
     a88:	6a 97       	sbiw	r28, 0x1a	; 26
     a8a:	6b 96       	adiw	r28, 0x1b	; 27
     a8c:	1f ae       	std	Y+63, r1	; 0x3f
     a8e:	6b 97       	sbiw	r28, 0x1b	; 27
     a90:	6c 96       	adiw	r28, 0x1c	; 28
     a92:	1f ae       	std	Y+63, r1	; 0x3f
     a94:	6c 97       	sbiw	r28, 0x1c	; 28
     a96:	6d 96       	adiw	r28, 0x1d	; 29
     a98:	1f ae       	std	Y+63, r1	; 0x3f
     a9a:	6d 97       	sbiw	r28, 0x1d	; 29
     a9c:	6e 96       	adiw	r28, 0x1e	; 30
     a9e:	1f ae       	std	Y+63, r1	; 0x3f
     aa0:	6e 97       	sbiw	r28, 0x1e	; 30
     aa2:	6f 96       	adiw	r28, 0x1f	; 31
     aa4:	1f ae       	std	Y+63, r1	; 0x3f
     aa6:	6f 97       	sbiw	r28, 0x1f	; 31
     aa8:	a0 96       	adiw	r28, 0x20	; 32
     aaa:	1f ae       	std	Y+63, r1	; 0x3f
     aac:	a0 97       	sbiw	r28, 0x20	; 32
			spuelen = 5000;
			trocknen = 5000;
			timer = inZeit_ms;
			zustand = Hauptwaesche;
     aae:	0f 2e       	mov	r0, r31
     ab0:	f9 e0       	ldi	r31, 0x09	; 9
     ab2:	9f 2e       	mov	r9, r31
     ab4:	f0 2d       	mov	r31, r0
		break;
     ab6:	36 c6       	rjmp	.+3180   	; 0x1724 <__EEPROM_REGION_LENGTH__+0x724>
		
		case Vorwaesche://----------------------------------------------------------------------------------
		lcdWriteZahl(1,0,(vorwaesche-(inZeit_ms-timer))/1000+1,2,0);
     ab8:	2f 96       	adiw	r28, 0x0f	; 15
     aba:	2f ad       	ldd	r18, Y+63	; 0x3f
     abc:	2f 97       	sbiw	r28, 0x0f	; 15
     abe:	60 96       	adiw	r28, 0x10	; 16
     ac0:	3f ad       	ldd	r19, Y+63	; 0x3f
     ac2:	60 97       	sbiw	r28, 0x10	; 16
     ac4:	61 96       	adiw	r28, 0x11	; 17
     ac6:	4f ad       	ldd	r20, Y+63	; 0x3f
     ac8:	61 97       	sbiw	r28, 0x11	; 17
     aca:	62 96       	adiw	r28, 0x12	; 18
     acc:	5f ad       	ldd	r21, Y+63	; 0x3f
     ace:	62 97       	sbiw	r28, 0x12	; 18
     ad0:	63 96       	adiw	r28, 0x13	; 19
     ad2:	6f ad       	ldd	r22, Y+63	; 0x3f
     ad4:	63 97       	sbiw	r28, 0x13	; 19
     ad6:	64 96       	adiw	r28, 0x14	; 20
     ad8:	7f ad       	ldd	r23, Y+63	; 0x3f
     ada:	64 97       	sbiw	r28, 0x14	; 20
     adc:	65 96       	adiw	r28, 0x15	; 21
     ade:	8f ad       	ldd	r24, Y+63	; 0x3f
     ae0:	65 97       	sbiw	r28, 0x15	; 21
     ae2:	66 96       	adiw	r28, 0x16	; 22
     ae4:	9f ad       	ldd	r25, Y+63	; 0x3f
     ae6:	66 97       	sbiw	r28, 0x16	; 22
     ae8:	a9 ac       	ldd	r10, Y+57	; 0x39
     aea:	ba ac       	ldd	r11, Y+58	; 0x3a
     aec:	cb ac       	ldd	r12, Y+59	; 0x3b
     aee:	dc ac       	ldd	r13, Y+60	; 0x3c
     af0:	ed ac       	ldd	r14, Y+61	; 0x3d
     af2:	fe ac       	ldd	r15, Y+62	; 0x3e
     af4:	0f ad       	ldd	r16, Y+63	; 0x3f
     af6:	21 96       	adiw	r28, 0x01	; 1
     af8:	1f ad       	ldd	r17, Y+63	; 0x3f
     afa:	21 97       	sbiw	r28, 0x01	; 1
     afc:	0e 94 6f 10 	call	0x20de	; 0x20de <__subdi3>
     b00:	a2 2e       	mov	r10, r18
     b02:	b3 2e       	mov	r11, r19
     b04:	c4 2e       	mov	r12, r20
     b06:	d5 2e       	mov	r13, r21
     b08:	e6 2e       	mov	r14, r22
     b0a:	f7 2e       	mov	r15, r23
     b0c:	08 2f       	mov	r16, r24
     b0e:	19 2f       	mov	r17, r25
     b10:	e1 96       	adiw	r28, 0x31	; 49
     b12:	2f ad       	ldd	r18, Y+63	; 0x3f
     b14:	e1 97       	sbiw	r28, 0x31	; 49
     b16:	e2 96       	adiw	r28, 0x32	; 50
     b18:	3f ad       	ldd	r19, Y+63	; 0x3f
     b1a:	e2 97       	sbiw	r28, 0x32	; 50
     b1c:	e3 96       	adiw	r28, 0x33	; 51
     b1e:	4f ad       	ldd	r20, Y+63	; 0x3f
     b20:	e3 97       	sbiw	r28, 0x33	; 51
     b22:	e4 96       	adiw	r28, 0x34	; 52
     b24:	5f ad       	ldd	r21, Y+63	; 0x3f
     b26:	e4 97       	sbiw	r28, 0x34	; 52
     b28:	e5 96       	adiw	r28, 0x35	; 53
     b2a:	6f ad       	ldd	r22, Y+63	; 0x3f
     b2c:	e5 97       	sbiw	r28, 0x35	; 53
     b2e:	e6 96       	adiw	r28, 0x36	; 54
     b30:	7f ad       	ldd	r23, Y+63	; 0x3f
     b32:	e6 97       	sbiw	r28, 0x36	; 54
     b34:	e7 96       	adiw	r28, 0x37	; 55
     b36:	8f ad       	ldd	r24, Y+63	; 0x3f
     b38:	e7 97       	sbiw	r28, 0x37	; 55
     b3a:	e8 96       	adiw	r28, 0x38	; 56
     b3c:	9f ad       	ldd	r25, Y+63	; 0x3f
     b3e:	e8 97       	sbiw	r28, 0x38	; 56
     b40:	0e 94 5a 10 	call	0x20b4	; 0x20b4 <__adddi3>
     b44:	28 96       	adiw	r28, 0x08	; 8
     b46:	2f af       	std	Y+63, r18	; 0x3f
     b48:	28 97       	sbiw	r28, 0x08	; 8
     b4a:	29 96       	adiw	r28, 0x09	; 9
     b4c:	3f af       	std	Y+63, r19	; 0x3f
     b4e:	29 97       	sbiw	r28, 0x09	; 9
     b50:	2a 96       	adiw	r28, 0x0a	; 10
     b52:	4f af       	std	Y+63, r20	; 0x3f
     b54:	2a 97       	sbiw	r28, 0x0a	; 10
     b56:	2b 96       	adiw	r28, 0x0b	; 11
     b58:	5f af       	std	Y+63, r21	; 0x3f
     b5a:	2b 97       	sbiw	r28, 0x0b	; 11
     b5c:	2c 96       	adiw	r28, 0x0c	; 12
     b5e:	6f af       	std	Y+63, r22	; 0x3f
     b60:	2c 97       	sbiw	r28, 0x0c	; 12
     b62:	2d 96       	adiw	r28, 0x0d	; 13
     b64:	7f af       	std	Y+63, r23	; 0x3f
     b66:	2d 97       	sbiw	r28, 0x0d	; 13
     b68:	88 2e       	mov	r8, r24
     b6a:	2e 96       	adiw	r28, 0x0e	; 14
     b6c:	9f af       	std	Y+63, r25	; 0x3f
     b6e:	2e 97       	sbiw	r28, 0x0e	; 14
     b70:	0f 2e       	mov	r0, r31
     b72:	f8 ee       	ldi	r31, 0xE8	; 232
     b74:	af 2e       	mov	r10, r31
     b76:	f0 2d       	mov	r31, r0
     b78:	0f 2e       	mov	r0, r31
     b7a:	f3 e0       	ldi	r31, 0x03	; 3
     b7c:	bf 2e       	mov	r11, r31
     b7e:	f0 2d       	mov	r31, r0
     b80:	c1 2c       	mov	r12, r1
     b82:	d1 2c       	mov	r13, r1
     b84:	e1 2c       	mov	r14, r1
     b86:	f1 2c       	mov	r15, r1
     b88:	00 e0       	ldi	r16, 0x00	; 0
     b8a:	10 e0       	ldi	r17, 0x00	; 0
     b8c:	0e 94 fe 0f 	call	0x1ffc	; 0x1ffc <__udivdi3>
     b90:	a1 e0       	ldi	r26, 0x01	; 1
     b92:	0e 94 63 10 	call	0x20c6	; 0x20c6 <__adddi3_s8>
     b96:	a1 2c       	mov	r10, r1
     b98:	68 94       	set
     b9a:	cc 24       	eor	r12, r12
     b9c:	c1 f8       	bld	r12, 1
     b9e:	e2 2e       	mov	r14, r18
     ba0:	f3 2e       	mov	r15, r19
     ba2:	04 2f       	mov	r16, r20
     ba4:	15 2f       	mov	r17, r21
     ba6:	26 2f       	mov	r18, r22
     ba8:	37 2f       	mov	r19, r23
     baa:	48 2f       	mov	r20, r24
     bac:	59 2f       	mov	r21, r25
     bae:	60 e0       	ldi	r22, 0x00	; 0
     bb0:	81 e0       	ldi	r24, 0x01	; 1
     bb2:	2f d7       	rcall	.+3678   	; 0x1a12 <lcdWriteZahl>
		lcdWriteText(1,2,"s");
     bb4:	89 e7       	ldi	r24, 0x79	; 121
     bb6:	92 e0       	ldi	r25, 0x02	; 2
     bb8:	9f 93       	push	r25
     bba:	8f 93       	push	r24
     bbc:	82 e0       	ldi	r24, 0x02	; 2
     bbe:	8f 93       	push	r24
     bc0:	81 e0       	ldi	r24, 0x01	; 1
     bc2:	8f 93       	push	r24
     bc4:	ec d6       	rcall	.+3544   	; 0x199e <lcdWriteText>
			if(((vorwaesche-(inZeit_ms-timer))>0)&&((vorwaesche-(inZeit_ms-timer))<10)){
     bc6:	28 96       	adiw	r28, 0x08	; 8
     bc8:	2f ad       	ldd	r18, Y+63	; 0x3f
     bca:	28 97       	sbiw	r28, 0x08	; 8
     bcc:	29 96       	adiw	r28, 0x09	; 9
     bce:	3f ad       	ldd	r19, Y+63	; 0x3f
     bd0:	29 97       	sbiw	r28, 0x09	; 9
     bd2:	2a 96       	adiw	r28, 0x0a	; 10
     bd4:	4f ad       	ldd	r20, Y+63	; 0x3f
     bd6:	2a 97       	sbiw	r28, 0x0a	; 10
     bd8:	2b 96       	adiw	r28, 0x0b	; 11
     bda:	5f ad       	ldd	r21, Y+63	; 0x3f
     bdc:	2b 97       	sbiw	r28, 0x0b	; 11
     bde:	2c 96       	adiw	r28, 0x0c	; 12
     be0:	6f ad       	ldd	r22, Y+63	; 0x3f
     be2:	2c 97       	sbiw	r28, 0x0c	; 12
     be4:	2d 96       	adiw	r28, 0x0d	; 13
     be6:	7f ad       	ldd	r23, Y+63	; 0x3f
     be8:	2d 97       	sbiw	r28, 0x0d	; 13
     bea:	88 2d       	mov	r24, r8
     bec:	2e 96       	adiw	r28, 0x0e	; 14
     bee:	9f ad       	ldd	r25, Y+63	; 0x3f
     bf0:	2e 97       	sbiw	r28, 0x0e	; 14
     bf2:	af ef       	ldi	r26, 0xFF	; 255
     bf4:	0e 94 63 10 	call	0x20c6	; 0x20c6 <__adddi3_s8>
     bf8:	0f 90       	pop	r0
     bfa:	0f 90       	pop	r0
     bfc:	0f 90       	pop	r0
     bfe:	0f 90       	pop	r0
     c00:	a8 e0       	ldi	r26, 0x08	; 8
     c02:	0e 94 78 10 	call	0x20f0	; 0x20f0 <__cmpdi2_s8>
     c06:	09 f0       	breq	.+2      	; 0xc0a <__LOCK_REGION_LENGTH__+0x80a>
     c08:	30 f5       	brcc	.+76     	; 0xc56 <__LOCK_REGION_LENGTH__+0x856>
				timer = inZeit_ms;
     c0a:	39 ad       	ldd	r19, Y+57	; 0x39
     c0c:	2f 96       	adiw	r28, 0x0f	; 15
     c0e:	3f af       	std	Y+63, r19	; 0x3f
     c10:	2f 97       	sbiw	r28, 0x0f	; 15
     c12:	8a ad       	ldd	r24, Y+58	; 0x3a
     c14:	60 96       	adiw	r28, 0x10	; 16
     c16:	8f af       	std	Y+63, r24	; 0x3f
     c18:	60 97       	sbiw	r28, 0x10	; 16
     c1a:	9b ad       	ldd	r25, Y+59	; 0x3b
     c1c:	61 96       	adiw	r28, 0x11	; 17
     c1e:	9f af       	std	Y+63, r25	; 0x3f
     c20:	61 97       	sbiw	r28, 0x11	; 17
     c22:	2c ad       	ldd	r18, Y+60	; 0x3c
     c24:	62 96       	adiw	r28, 0x12	; 18
     c26:	2f af       	std	Y+63, r18	; 0x3f
     c28:	62 97       	sbiw	r28, 0x12	; 18
     c2a:	3d ad       	ldd	r19, Y+61	; 0x3d
     c2c:	63 96       	adiw	r28, 0x13	; 19
     c2e:	3f af       	std	Y+63, r19	; 0x3f
     c30:	63 97       	sbiw	r28, 0x13	; 19
     c32:	8e ad       	ldd	r24, Y+62	; 0x3e
     c34:	64 96       	adiw	r28, 0x14	; 20
     c36:	8f af       	std	Y+63, r24	; 0x3f
     c38:	64 97       	sbiw	r28, 0x14	; 20
     c3a:	9f ad       	ldd	r25, Y+63	; 0x3f
     c3c:	65 96       	adiw	r28, 0x15	; 21
     c3e:	9f af       	std	Y+63, r25	; 0x3f
     c40:	65 97       	sbiw	r28, 0x15	; 21
     c42:	21 96       	adiw	r28, 0x01	; 1
     c44:	2f ad       	ldd	r18, Y+63	; 0x3f
     c46:	21 97       	sbiw	r28, 0x01	; 1
     c48:	66 96       	adiw	r28, 0x16	; 22
     c4a:	2f af       	std	Y+63, r18	; 0x3f
     c4c:	66 97       	sbiw	r28, 0x16	; 22
				zustand = Hauptwaesche;
     c4e:	0f 2e       	mov	r0, r31
     c50:	f9 e0       	ldi	r31, 0x09	; 9
     c52:	9f 2e       	mov	r9, r31
     c54:	f0 2d       	mov	r31, r0
			}
			if(!inNotAus){
     c56:	12 14       	cp	r1, r2
     c58:	13 04       	cpc	r1, r3
     c5a:	0c f0       	brlt	.+2      	; 0xc5e <__LOCK_REGION_LENGTH__+0x85e>
				zustand = NOTAUS;
     c5c:	91 2c       	mov	r9, r1
			}
			if((!inFahrradsensor)|(!inWasser)){
     c5e:	91 e0       	ldi	r25, 0x01	; 1
     c60:	23 96       	adiw	r28, 0x03	; 3
     c62:	2e ad       	ldd	r18, Y+62	; 0x3e
     c64:	3f ad       	ldd	r19, Y+63	; 0x3f
     c66:	23 97       	sbiw	r28, 0x03	; 3
     c68:	12 16       	cp	r1, r18
     c6a:	13 06       	cpc	r1, r19
     c6c:	0c f4       	brge	.+2      	; 0xc70 <__LOCK_REGION_LENGTH__+0x870>
     c6e:	90 e0       	ldi	r25, 0x00	; 0
     c70:	81 e0       	ldi	r24, 0x01	; 1
     c72:	25 96       	adiw	r28, 0x05	; 5
     c74:	2e ad       	ldd	r18, Y+62	; 0x3e
     c76:	3f ad       	ldd	r19, Y+63	; 0x3f
     c78:	25 97       	sbiw	r28, 0x05	; 5
     c7a:	12 16       	cp	r1, r18
     c7c:	13 06       	cpc	r1, r19
     c7e:	0c f4       	brge	.+2      	; 0xc82 <__LOCK_REGION_LENGTH__+0x882>
     c80:	80 e0       	ldi	r24, 0x00	; 0
     c82:	89 2b       	or	r24, r25
     c84:	b1 f0       	breq	.+44     	; 0xcb2 <__LOCK_REGION_LENGTH__+0x8b2>
				zustand = Fehler;
				lcdWriteText(0,0,"                              ");
     c86:	0a e5       	ldi	r16, 0x5A	; 90
     c88:	12 e0       	ldi	r17, 0x02	; 2
     c8a:	1f 93       	push	r17
     c8c:	0f 93       	push	r16
     c8e:	1f 92       	push	r1
     c90:	1f 92       	push	r1
     c92:	85 d6       	rcall	.+3338   	; 0x199e <lcdWriteText>
				lcdWriteText(1,0,"                              ");
     c94:	1f 93       	push	r17
     c96:	0f 93       	push	r16
     c98:	1f 92       	push	r1
     c9a:	81 e0       	ldi	r24, 0x01	; 1
     c9c:	8f 93       	push	r24
     c9e:	7f d6       	rcall	.+3326   	; 0x199e <lcdWriteText>
     ca0:	0f b6       	in	r0, 0x3f	; 63
     ca2:	f8 94       	cli
     ca4:	de bf       	out	0x3e, r29	; 62
     ca6:	0f be       	out	0x3f, r0	; 63
     ca8:	cd bf       	out	0x3d, r28	; 61
			}
			if(!inNotAus){
				zustand = NOTAUS;
			}
			if((!inFahrradsensor)|(!inWasser)){
				zustand = Fehler;
     caa:	0f 2e       	mov	r0, r31
     cac:	fc e0       	ldi	r31, 0x0C	; 12
     cae:	9f 2e       	mov	r9, r31
     cb0:	f0 2d       	mov	r31, r0
				lcdWriteText(0,0,"                              ");
				lcdWriteText(1,0,"                              ");
			}
		lcdWriteText(3,0,"Abbrechen:");
     cb2:	8b e7       	ldi	r24, 0x7B	; 123
     cb4:	92 e0       	ldi	r25, 0x02	; 2
     cb6:	9f 93       	push	r25
     cb8:	8f 93       	push	r24
     cba:	1f 92       	push	r1
     cbc:	83 e0       	ldi	r24, 0x03	; 3
     cbe:	8f 93       	push	r24
     cc0:	6e d6       	rcall	.+3292   	; 0x199e <lcdWriteText>
		if(button&&(position==3)){
     cc2:	0f 90       	pop	r0
     cc4:	0f 90       	pop	r0
     cc6:	0f 90       	pop	r0
     cc8:	0f 90       	pop	r0
     cca:	16 14       	cp	r1, r6
     ccc:	17 04       	cpc	r1, r7
     cce:	34 f4       	brge	.+12     	; 0xcdc <__LOCK_REGION_LENGTH__+0x8dc>
     cd0:	93 e0       	ldi	r25, 0x03	; 3
     cd2:	59 12       	cpse	r5, r25
     cd4:	03 c0       	rjmp	.+6      	; 0xcdc <__LOCK_REGION_LENGTH__+0x8dc>
			zustand = EIN;
     cd6:	68 94       	set
     cd8:	99 24       	eor	r9, r9
     cda:	91 f8       	bld	r9, 1
		}
			lcdWriteText(position,10,"x");
     cdc:	8b e9       	ldi	r24, 0x9B	; 155
     cde:	92 e0       	ldi	r25, 0x02	; 2
     ce0:	9f 93       	push	r25
     ce2:	8f 93       	push	r24
     ce4:	1a e0       	ldi	r17, 0x0A	; 10
     ce6:	1f 93       	push	r17
     ce8:	5f 92       	push	r5
     cea:	59 d6       	rcall	.+3250   	; 0x199e <lcdWriteText>
			lcdWriteText(position_old,10," ");
     cec:	87 e7       	ldi	r24, 0x77	; 119
     cee:	92 e0       	ldi	r25, 0x02	; 2
     cf0:	9f 93       	push	r25
     cf2:	8f 93       	push	r24
     cf4:	1f 93       	push	r17
     cf6:	67 96       	adiw	r28, 0x17	; 23
     cf8:	2f ad       	ldd	r18, Y+63	; 0x3f
     cfa:	67 97       	sbiw	r28, 0x17	; 23
     cfc:	2f 93       	push	r18
     cfe:	4f d6       	rcall	.+3230   	; 0x199e <lcdWriteText>
			lcdWriteText(2,0,"Pause    :");
     d00:	86 e8       	ldi	r24, 0x86	; 134
     d02:	92 e0       	ldi	r25, 0x02	; 2
     d04:	9f 93       	push	r25
     d06:	8f 93       	push	r24
     d08:	1f 92       	push	r1
     d0a:	82 e0       	ldi	r24, 0x02	; 2
     d0c:	8f 93       	push	r24
     d0e:	47 d6       	rcall	.+3214   	; 0x199e <lcdWriteText>
		if((position==2)&&button){
     d10:	0f b6       	in	r0, 0x3f	; 63
     d12:	f8 94       	cli
     d14:	de bf       	out	0x3e, r29	; 62
     d16:	0f be       	out	0x3f, r0	; 63
     d18:	cd bf       	out	0x3d, r28	; 61
     d1a:	92 e0       	ldi	r25, 0x02	; 2
     d1c:	59 12       	cpse	r5, r25
     d1e:	02 c5       	rjmp	.+2564   	; 0x1724 <__EEPROM_REGION_LENGTH__+0x724>
     d20:	16 14       	cp	r1, r6
     d22:	17 04       	cpc	r1, r7
     d24:	0c f4       	brge	.+2      	; 0xd28 <__LOCK_REGION_LENGTH__+0x928>
     d26:	ee c4       	rjmp	.+2524   	; 0x1704 <__EEPROM_REGION_LENGTH__+0x704>
     d28:	fd c4       	rjmp	.+2554   	; 0x1724 <__EEPROM_REGION_LENGTH__+0x724>
			zustand = Pause;
		}
		break;
		
		case Hauptwaesche://-----------------------------------------------------------------------------
		lcdWriteZahl(1,0,(hauptwaesche-(inZeit_ms-timer))/1000+1,2,0);
     d2a:	2f 96       	adiw	r28, 0x0f	; 15
     d2c:	2f ad       	ldd	r18, Y+63	; 0x3f
     d2e:	2f 97       	sbiw	r28, 0x0f	; 15
     d30:	60 96       	adiw	r28, 0x10	; 16
     d32:	3f ad       	ldd	r19, Y+63	; 0x3f
     d34:	60 97       	sbiw	r28, 0x10	; 16
     d36:	61 96       	adiw	r28, 0x11	; 17
     d38:	4f ad       	ldd	r20, Y+63	; 0x3f
     d3a:	61 97       	sbiw	r28, 0x11	; 17
     d3c:	62 96       	adiw	r28, 0x12	; 18
     d3e:	5f ad       	ldd	r21, Y+63	; 0x3f
     d40:	62 97       	sbiw	r28, 0x12	; 18
     d42:	63 96       	adiw	r28, 0x13	; 19
     d44:	6f ad       	ldd	r22, Y+63	; 0x3f
     d46:	63 97       	sbiw	r28, 0x13	; 19
     d48:	64 96       	adiw	r28, 0x14	; 20
     d4a:	7f ad       	ldd	r23, Y+63	; 0x3f
     d4c:	64 97       	sbiw	r28, 0x14	; 20
     d4e:	65 96       	adiw	r28, 0x15	; 21
     d50:	8f ad       	ldd	r24, Y+63	; 0x3f
     d52:	65 97       	sbiw	r28, 0x15	; 21
     d54:	66 96       	adiw	r28, 0x16	; 22
     d56:	9f ad       	ldd	r25, Y+63	; 0x3f
     d58:	66 97       	sbiw	r28, 0x16	; 22
     d5a:	a9 ac       	ldd	r10, Y+57	; 0x39
     d5c:	ba ac       	ldd	r11, Y+58	; 0x3a
     d5e:	cb ac       	ldd	r12, Y+59	; 0x3b
     d60:	dc ac       	ldd	r13, Y+60	; 0x3c
     d62:	ed ac       	ldd	r14, Y+61	; 0x3d
     d64:	fe ac       	ldd	r15, Y+62	; 0x3e
     d66:	0f ad       	ldd	r16, Y+63	; 0x3f
     d68:	21 96       	adiw	r28, 0x01	; 1
     d6a:	1f ad       	ldd	r17, Y+63	; 0x3f
     d6c:	21 97       	sbiw	r28, 0x01	; 1
     d6e:	0e 94 6f 10 	call	0x20de	; 0x20de <__subdi3>
     d72:	a2 2e       	mov	r10, r18
     d74:	b3 2e       	mov	r11, r19
     d76:	c4 2e       	mov	r12, r20
     d78:	d5 2e       	mov	r13, r21
     d7a:	e6 2e       	mov	r14, r22
     d7c:	f7 2e       	mov	r15, r23
     d7e:	08 2f       	mov	r16, r24
     d80:	19 2f       	mov	r17, r25
     d82:	69 96       	adiw	r28, 0x19	; 25
     d84:	2f ad       	ldd	r18, Y+63	; 0x3f
     d86:	69 97       	sbiw	r28, 0x19	; 25
     d88:	6a 96       	adiw	r28, 0x1a	; 26
     d8a:	3f ad       	ldd	r19, Y+63	; 0x3f
     d8c:	6a 97       	sbiw	r28, 0x1a	; 26
     d8e:	6b 96       	adiw	r28, 0x1b	; 27
     d90:	4f ad       	ldd	r20, Y+63	; 0x3f
     d92:	6b 97       	sbiw	r28, 0x1b	; 27
     d94:	6c 96       	adiw	r28, 0x1c	; 28
     d96:	5f ad       	ldd	r21, Y+63	; 0x3f
     d98:	6c 97       	sbiw	r28, 0x1c	; 28
     d9a:	6d 96       	adiw	r28, 0x1d	; 29
     d9c:	6f ad       	ldd	r22, Y+63	; 0x3f
     d9e:	6d 97       	sbiw	r28, 0x1d	; 29
     da0:	6e 96       	adiw	r28, 0x1e	; 30
     da2:	7f ad       	ldd	r23, Y+63	; 0x3f
     da4:	6e 97       	sbiw	r28, 0x1e	; 30
     da6:	6f 96       	adiw	r28, 0x1f	; 31
     da8:	8f ad       	ldd	r24, Y+63	; 0x3f
     daa:	6f 97       	sbiw	r28, 0x1f	; 31
     dac:	a0 96       	adiw	r28, 0x20	; 32
     dae:	9f ad       	ldd	r25, Y+63	; 0x3f
     db0:	a0 97       	sbiw	r28, 0x20	; 32
     db2:	0e 94 5a 10 	call	0x20b4	; 0x20b4 <__adddi3>
     db6:	28 96       	adiw	r28, 0x08	; 8
     db8:	2f af       	std	Y+63, r18	; 0x3f
     dba:	28 97       	sbiw	r28, 0x08	; 8
     dbc:	29 96       	adiw	r28, 0x09	; 9
     dbe:	3f af       	std	Y+63, r19	; 0x3f
     dc0:	29 97       	sbiw	r28, 0x09	; 9
     dc2:	2a 96       	adiw	r28, 0x0a	; 10
     dc4:	4f af       	std	Y+63, r20	; 0x3f
     dc6:	2a 97       	sbiw	r28, 0x0a	; 10
     dc8:	2b 96       	adiw	r28, 0x0b	; 11
     dca:	5f af       	std	Y+63, r21	; 0x3f
     dcc:	2b 97       	sbiw	r28, 0x0b	; 11
     dce:	2c 96       	adiw	r28, 0x0c	; 12
     dd0:	6f af       	std	Y+63, r22	; 0x3f
     dd2:	2c 97       	sbiw	r28, 0x0c	; 12
     dd4:	2d 96       	adiw	r28, 0x0d	; 13
     dd6:	7f af       	std	Y+63, r23	; 0x3f
     dd8:	2d 97       	sbiw	r28, 0x0d	; 13
     dda:	88 2e       	mov	r8, r24
     ddc:	2e 96       	adiw	r28, 0x0e	; 14
     dde:	9f af       	std	Y+63, r25	; 0x3f
     de0:	2e 97       	sbiw	r28, 0x0e	; 14
     de2:	0f 2e       	mov	r0, r31
     de4:	f8 ee       	ldi	r31, 0xE8	; 232
     de6:	af 2e       	mov	r10, r31
     de8:	f0 2d       	mov	r31, r0
     dea:	0f 2e       	mov	r0, r31
     dec:	f3 e0       	ldi	r31, 0x03	; 3
     dee:	bf 2e       	mov	r11, r31
     df0:	f0 2d       	mov	r31, r0
     df2:	c1 2c       	mov	r12, r1
     df4:	d1 2c       	mov	r13, r1
     df6:	e1 2c       	mov	r14, r1
     df8:	f1 2c       	mov	r15, r1
     dfa:	00 e0       	ldi	r16, 0x00	; 0
     dfc:	10 e0       	ldi	r17, 0x00	; 0
     dfe:	0e 94 fe 0f 	call	0x1ffc	; 0x1ffc <__udivdi3>
     e02:	a1 e0       	ldi	r26, 0x01	; 1
     e04:	0e 94 63 10 	call	0x20c6	; 0x20c6 <__adddi3_s8>
     e08:	a1 2c       	mov	r10, r1
     e0a:	68 94       	set
     e0c:	cc 24       	eor	r12, r12
     e0e:	c1 f8       	bld	r12, 1
     e10:	e2 2e       	mov	r14, r18
     e12:	f3 2e       	mov	r15, r19
     e14:	04 2f       	mov	r16, r20
     e16:	15 2f       	mov	r17, r21
     e18:	26 2f       	mov	r18, r22
     e1a:	37 2f       	mov	r19, r23
     e1c:	48 2f       	mov	r20, r24
     e1e:	59 2f       	mov	r21, r25
     e20:	60 e0       	ldi	r22, 0x00	; 0
     e22:	81 e0       	ldi	r24, 0x01	; 1
     e24:	f6 d5       	rcall	.+3052   	; 0x1a12 <lcdWriteZahl>
		lcdWriteText(1,2,"s");
     e26:	89 e7       	ldi	r24, 0x79	; 121
     e28:	92 e0       	ldi	r25, 0x02	; 2
     e2a:	9f 93       	push	r25
     e2c:	8f 93       	push	r24
     e2e:	82 e0       	ldi	r24, 0x02	; 2
     e30:	8f 93       	push	r24
     e32:	81 e0       	ldi	r24, 0x01	; 1
     e34:	8f 93       	push	r24
     e36:	b3 d5       	rcall	.+2918   	; 0x199e <lcdWriteText>
     e38:	28 96       	adiw	r28, 0x08	; 8
			if(((hauptwaesche-(inZeit_ms-timer))>0)&&((hauptwaesche-(inZeit_ms-timer))<10)){
     e3a:	2f ad       	ldd	r18, Y+63	; 0x3f
     e3c:	28 97       	sbiw	r28, 0x08	; 8
     e3e:	29 96       	adiw	r28, 0x09	; 9
     e40:	3f ad       	ldd	r19, Y+63	; 0x3f
     e42:	29 97       	sbiw	r28, 0x09	; 9
     e44:	2a 96       	adiw	r28, 0x0a	; 10
     e46:	4f ad       	ldd	r20, Y+63	; 0x3f
     e48:	2a 97       	sbiw	r28, 0x0a	; 10
     e4a:	2b 96       	adiw	r28, 0x0b	; 11
     e4c:	5f ad       	ldd	r21, Y+63	; 0x3f
     e4e:	2b 97       	sbiw	r28, 0x0b	; 11
     e50:	2c 96       	adiw	r28, 0x0c	; 12
     e52:	6f ad       	ldd	r22, Y+63	; 0x3f
     e54:	2c 97       	sbiw	r28, 0x0c	; 12
     e56:	2d 96       	adiw	r28, 0x0d	; 13
     e58:	7f ad       	ldd	r23, Y+63	; 0x3f
     e5a:	2d 97       	sbiw	r28, 0x0d	; 13
     e5c:	88 2d       	mov	r24, r8
     e5e:	2e 96       	adiw	r28, 0x0e	; 14
     e60:	9f ad       	ldd	r25, Y+63	; 0x3f
     e62:	2e 97       	sbiw	r28, 0x0e	; 14
     e64:	af ef       	ldi	r26, 0xFF	; 255
     e66:	0e 94 63 10 	call	0x20c6	; 0x20c6 <__adddi3_s8>
     e6a:	0f 90       	pop	r0
     e6c:	0f 90       	pop	r0
     e6e:	0f 90       	pop	r0
     e70:	0f 90       	pop	r0
     e72:	a8 e0       	ldi	r26, 0x08	; 8
     e74:	0e 94 78 10 	call	0x20f0	; 0x20f0 <__cmpdi2_s8>
     e78:	09 f0       	breq	.+2      	; 0xe7c <__LOCK_REGION_LENGTH__+0xa7c>
     e7a:	30 f5       	brcc	.+76     	; 0xec8 <__LOCK_REGION_LENGTH__+0xac8>
     e7c:	29 ad       	ldd	r18, Y+57	; 0x39
				timer = inZeit_ms;
     e7e:	2f 96       	adiw	r28, 0x0f	; 15
     e80:	2f af       	std	Y+63, r18	; 0x3f
     e82:	2f 97       	sbiw	r28, 0x0f	; 15
     e84:	3a ad       	ldd	r19, Y+58	; 0x3a
     e86:	60 96       	adiw	r28, 0x10	; 16
     e88:	3f af       	std	Y+63, r19	; 0x3f
     e8a:	60 97       	sbiw	r28, 0x10	; 16
     e8c:	8b ad       	ldd	r24, Y+59	; 0x3b
     e8e:	61 96       	adiw	r28, 0x11	; 17
     e90:	8f af       	std	Y+63, r24	; 0x3f
     e92:	61 97       	sbiw	r28, 0x11	; 17
     e94:	9c ad       	ldd	r25, Y+60	; 0x3c
     e96:	62 96       	adiw	r28, 0x12	; 18
     e98:	9f af       	std	Y+63, r25	; 0x3f
     e9a:	62 97       	sbiw	r28, 0x12	; 18
     e9c:	2d ad       	ldd	r18, Y+61	; 0x3d
     e9e:	63 96       	adiw	r28, 0x13	; 19
     ea0:	2f af       	std	Y+63, r18	; 0x3f
     ea2:	63 97       	sbiw	r28, 0x13	; 19
     ea4:	3e ad       	ldd	r19, Y+62	; 0x3e
     ea6:	64 96       	adiw	r28, 0x14	; 20
     ea8:	3f af       	std	Y+63, r19	; 0x3f
     eaa:	64 97       	sbiw	r28, 0x14	; 20
     eac:	8f ad       	ldd	r24, Y+63	; 0x3f
     eae:	65 96       	adiw	r28, 0x15	; 21
     eb0:	8f af       	std	Y+63, r24	; 0x3f
     eb2:	65 97       	sbiw	r28, 0x15	; 21
     eb4:	21 96       	adiw	r28, 0x01	; 1
     eb6:	9f ad       	ldd	r25, Y+63	; 0x3f
     eb8:	21 97       	sbiw	r28, 0x01	; 1
     eba:	66 96       	adiw	r28, 0x16	; 22
     ebc:	9f af       	std	Y+63, r25	; 0x3f
     ebe:	66 97       	sbiw	r28, 0x16	; 22
     ec0:	0f 2e       	mov	r0, r31
				zustand = Spuelen;
     ec2:	fa e0       	ldi	r31, 0x0A	; 10
     ec4:	9f 2e       	mov	r9, r31
     ec6:	f0 2d       	mov	r31, r0
     ec8:	12 14       	cp	r1, r2
			}
			if(!inNotAus){
     eca:	13 04       	cpc	r1, r3
     ecc:	0c f0       	brlt	.+2      	; 0xed0 <__LOCK_REGION_LENGTH__+0xad0>
     ece:	91 2c       	mov	r9, r1
				zustand = NOTAUS;
     ed0:	91 e0       	ldi	r25, 0x01	; 1
			}
			if((!inFahrradsensor)|(!inWasser)){
     ed2:	23 96       	adiw	r28, 0x03	; 3
     ed4:	2e ad       	ldd	r18, Y+62	; 0x3e
     ed6:	3f ad       	ldd	r19, Y+63	; 0x3f
     ed8:	23 97       	sbiw	r28, 0x03	; 3
     eda:	12 16       	cp	r1, r18
     edc:	13 06       	cpc	r1, r19
     ede:	0c f4       	brge	.+2      	; 0xee2 <__LOCK_REGION_LENGTH__+0xae2>
     ee0:	90 e0       	ldi	r25, 0x00	; 0
     ee2:	81 e0       	ldi	r24, 0x01	; 1
     ee4:	25 96       	adiw	r28, 0x05	; 5
     ee6:	2e ad       	ldd	r18, Y+62	; 0x3e
     ee8:	3f ad       	ldd	r19, Y+63	; 0x3f
     eea:	25 97       	sbiw	r28, 0x05	; 5
     eec:	12 16       	cp	r1, r18
     eee:	13 06       	cpc	r1, r19
     ef0:	0c f4       	brge	.+2      	; 0xef4 <__LOCK_REGION_LENGTH__+0xaf4>
     ef2:	80 e0       	ldi	r24, 0x00	; 0
     ef4:	89 2b       	or	r24, r25
     ef6:	b1 f0       	breq	.+44     	; 0xf24 <__LOCK_REGION_LENGTH__+0xb24>
				zustand = Fehler;
				lcdWriteText(0,0,"                              ");
     ef8:	0a e5       	ldi	r16, 0x5A	; 90
     efa:	12 e0       	ldi	r17, 0x02	; 2
     efc:	1f 93       	push	r17
     efe:	0f 93       	push	r16
     f00:	1f 92       	push	r1
     f02:	1f 92       	push	r1
     f04:	4c d5       	rcall	.+2712   	; 0x199e <lcdWriteText>
				lcdWriteText(1,0,"                              ");
     f06:	1f 93       	push	r17
     f08:	0f 93       	push	r16
     f0a:	1f 92       	push	r1
     f0c:	81 e0       	ldi	r24, 0x01	; 1
     f0e:	8f 93       	push	r24
     f10:	46 d5       	rcall	.+2700   	; 0x199e <lcdWriteText>
     f12:	0f b6       	in	r0, 0x3f	; 63
     f14:	f8 94       	cli
     f16:	de bf       	out	0x3e, r29	; 62
     f18:	0f be       	out	0x3f, r0	; 63
     f1a:	cd bf       	out	0x3d, r28	; 61
			}
			if(!inNotAus){
				zustand = NOTAUS;
			}
			if((!inFahrradsensor)|(!inWasser)){
				zustand = Fehler;
     f1c:	0f 2e       	mov	r0, r31
     f1e:	fc e0       	ldi	r31, 0x0C	; 12
     f20:	9f 2e       	mov	r9, r31
     f22:	f0 2d       	mov	r31, r0
				lcdWriteText(0,0,"                              ");
				lcdWriteText(1,0,"                              ");
			}
			lcdWriteText(3,0,"Abbrechen:x");
     f24:	81 e9       	ldi	r24, 0x91	; 145
     f26:	92 e0       	ldi	r25, 0x02	; 2
     f28:	9f 93       	push	r25
     f2a:	8f 93       	push	r24
     f2c:	1f 92       	push	r1
     f2e:	83 e0       	ldi	r24, 0x03	; 3
     f30:	8f 93       	push	r24
     f32:	35 d5       	rcall	.+2666   	; 0x199e <lcdWriteText>
     f34:	0f 90       	pop	r0
		if(button){
     f36:	0f 90       	pop	r0
     f38:	0f 90       	pop	r0
     f3a:	0f 90       	pop	r0
     f3c:	16 14       	cp	r1, r6
     f3e:	17 04       	cpc	r1, r7
     f40:	0c f4       	brge	.+2      	; 0xf44 <__LOCK_REGION_LENGTH__+0xb44>
     f42:	e5 c3       	rjmp	.+1994   	; 0x170e <__EEPROM_REGION_LENGTH__+0x70e>
     f44:	ef c3       	rjmp	.+2014   	; 0x1724 <__EEPROM_REGION_LENGTH__+0x724>
     f46:	2f 96       	adiw	r28, 0x0f	; 15
			zustand = EIN;
		}
		break;
		
		case Spuelen://--------------------------------------------------------------------------------------
		lcdWriteZahl(1,0,(spuelen-(inZeit_ms-timer))/1000+1,2,0);
     f48:	2f ad       	ldd	r18, Y+63	; 0x3f
     f4a:	2f 97       	sbiw	r28, 0x0f	; 15
     f4c:	60 96       	adiw	r28, 0x10	; 16
     f4e:	3f ad       	ldd	r19, Y+63	; 0x3f
     f50:	60 97       	sbiw	r28, 0x10	; 16
     f52:	61 96       	adiw	r28, 0x11	; 17
     f54:	4f ad       	ldd	r20, Y+63	; 0x3f
     f56:	61 97       	sbiw	r28, 0x11	; 17
     f58:	62 96       	adiw	r28, 0x12	; 18
     f5a:	5f ad       	ldd	r21, Y+63	; 0x3f
     f5c:	62 97       	sbiw	r28, 0x12	; 18
     f5e:	63 96       	adiw	r28, 0x13	; 19
     f60:	6f ad       	ldd	r22, Y+63	; 0x3f
     f62:	63 97       	sbiw	r28, 0x13	; 19
     f64:	64 96       	adiw	r28, 0x14	; 20
     f66:	7f ad       	ldd	r23, Y+63	; 0x3f
     f68:	64 97       	sbiw	r28, 0x14	; 20
     f6a:	65 96       	adiw	r28, 0x15	; 21
     f6c:	8f ad       	ldd	r24, Y+63	; 0x3f
     f6e:	65 97       	sbiw	r28, 0x15	; 21
     f70:	66 96       	adiw	r28, 0x16	; 22
     f72:	9f ad       	ldd	r25, Y+63	; 0x3f
     f74:	66 97       	sbiw	r28, 0x16	; 22
     f76:	a9 ac       	ldd	r10, Y+57	; 0x39
     f78:	ba ac       	ldd	r11, Y+58	; 0x3a
     f7a:	cb ac       	ldd	r12, Y+59	; 0x3b
     f7c:	dc ac       	ldd	r13, Y+60	; 0x3c
     f7e:	ed ac       	ldd	r14, Y+61	; 0x3d
     f80:	fe ac       	ldd	r15, Y+62	; 0x3e
     f82:	0f ad       	ldd	r16, Y+63	; 0x3f
     f84:	21 96       	adiw	r28, 0x01	; 1
     f86:	1f ad       	ldd	r17, Y+63	; 0x3f
     f88:	21 97       	sbiw	r28, 0x01	; 1
     f8a:	0e 94 6f 10 	call	0x20de	; 0x20de <__subdi3>
     f8e:	a2 2e       	mov	r10, r18
     f90:	b3 2e       	mov	r11, r19
     f92:	c4 2e       	mov	r12, r20
     f94:	d5 2e       	mov	r13, r21
     f96:	e6 2e       	mov	r14, r22
     f98:	f7 2e       	mov	r15, r23
     f9a:	08 2f       	mov	r16, r24
     f9c:	19 2f       	mov	r17, r25
     f9e:	a1 96       	adiw	r28, 0x21	; 33
     fa0:	2f ad       	ldd	r18, Y+63	; 0x3f
     fa2:	a1 97       	sbiw	r28, 0x21	; 33
     fa4:	a2 96       	adiw	r28, 0x22	; 34
     fa6:	3f ad       	ldd	r19, Y+63	; 0x3f
     fa8:	a2 97       	sbiw	r28, 0x22	; 34
     faa:	a3 96       	adiw	r28, 0x23	; 35
     fac:	4f ad       	ldd	r20, Y+63	; 0x3f
     fae:	a3 97       	sbiw	r28, 0x23	; 35
     fb0:	a4 96       	adiw	r28, 0x24	; 36
     fb2:	5f ad       	ldd	r21, Y+63	; 0x3f
     fb4:	a4 97       	sbiw	r28, 0x24	; 36
     fb6:	a5 96       	adiw	r28, 0x25	; 37
     fb8:	6f ad       	ldd	r22, Y+63	; 0x3f
     fba:	a5 97       	sbiw	r28, 0x25	; 37
     fbc:	a6 96       	adiw	r28, 0x26	; 38
     fbe:	7f ad       	ldd	r23, Y+63	; 0x3f
     fc0:	a6 97       	sbiw	r28, 0x26	; 38
     fc2:	a7 96       	adiw	r28, 0x27	; 39
     fc4:	8f ad       	ldd	r24, Y+63	; 0x3f
     fc6:	a7 97       	sbiw	r28, 0x27	; 39
     fc8:	a8 96       	adiw	r28, 0x28	; 40
     fca:	9f ad       	ldd	r25, Y+63	; 0x3f
     fcc:	a8 97       	sbiw	r28, 0x28	; 40
     fce:	0e 94 5a 10 	call	0x20b4	; 0x20b4 <__adddi3>
     fd2:	28 96       	adiw	r28, 0x08	; 8
     fd4:	2f af       	std	Y+63, r18	; 0x3f
     fd6:	28 97       	sbiw	r28, 0x08	; 8
     fd8:	29 96       	adiw	r28, 0x09	; 9
     fda:	3f af       	std	Y+63, r19	; 0x3f
     fdc:	29 97       	sbiw	r28, 0x09	; 9
     fde:	2a 96       	adiw	r28, 0x0a	; 10
     fe0:	4f af       	std	Y+63, r20	; 0x3f
     fe2:	2a 97       	sbiw	r28, 0x0a	; 10
     fe4:	2b 96       	adiw	r28, 0x0b	; 11
     fe6:	5f af       	std	Y+63, r21	; 0x3f
     fe8:	2b 97       	sbiw	r28, 0x0b	; 11
     fea:	2c 96       	adiw	r28, 0x0c	; 12
     fec:	6f af       	std	Y+63, r22	; 0x3f
     fee:	2c 97       	sbiw	r28, 0x0c	; 12
     ff0:	2d 96       	adiw	r28, 0x0d	; 13
     ff2:	7f af       	std	Y+63, r23	; 0x3f
     ff4:	2d 97       	sbiw	r28, 0x0d	; 13
     ff6:	88 2e       	mov	r8, r24
     ff8:	2e 96       	adiw	r28, 0x0e	; 14
     ffa:	9f af       	std	Y+63, r25	; 0x3f
     ffc:	2e 97       	sbiw	r28, 0x0e	; 14
     ffe:	0f 2e       	mov	r0, r31
    1000:	f8 ee       	ldi	r31, 0xE8	; 232
    1002:	af 2e       	mov	r10, r31
    1004:	f0 2d       	mov	r31, r0
    1006:	0f 2e       	mov	r0, r31
    1008:	f3 e0       	ldi	r31, 0x03	; 3
    100a:	bf 2e       	mov	r11, r31
    100c:	f0 2d       	mov	r31, r0
    100e:	c1 2c       	mov	r12, r1
    1010:	d1 2c       	mov	r13, r1
    1012:	e1 2c       	mov	r14, r1
    1014:	f1 2c       	mov	r15, r1
    1016:	00 e0       	ldi	r16, 0x00	; 0
    1018:	10 e0       	ldi	r17, 0x00	; 0
    101a:	f0 d7       	rcall	.+4064   	; 0x1ffc <__udivdi3>
    101c:	a1 e0       	ldi	r26, 0x01	; 1
    101e:	0e 94 63 10 	call	0x20c6	; 0x20c6 <__adddi3_s8>
    1022:	a1 2c       	mov	r10, r1
    1024:	68 94       	set
    1026:	cc 24       	eor	r12, r12
    1028:	c1 f8       	bld	r12, 1
    102a:	e2 2e       	mov	r14, r18
    102c:	f3 2e       	mov	r15, r19
    102e:	04 2f       	mov	r16, r20
    1030:	15 2f       	mov	r17, r21
    1032:	26 2f       	mov	r18, r22
    1034:	37 2f       	mov	r19, r23
    1036:	48 2f       	mov	r20, r24
    1038:	59 2f       	mov	r21, r25
    103a:	60 e0       	ldi	r22, 0x00	; 0
    103c:	81 e0       	ldi	r24, 0x01	; 1
    103e:	e9 d4       	rcall	.+2514   	; 0x1a12 <lcdWriteZahl>
		lcdWriteText(1,2,"s");
    1040:	89 e7       	ldi	r24, 0x79	; 121
    1042:	92 e0       	ldi	r25, 0x02	; 2
    1044:	9f 93       	push	r25
    1046:	8f 93       	push	r24
    1048:	82 e0       	ldi	r24, 0x02	; 2
    104a:	8f 93       	push	r24
    104c:	81 e0       	ldi	r24, 0x01	; 1
    104e:	8f 93       	push	r24
    1050:	a6 d4       	rcall	.+2380   	; 0x199e <lcdWriteText>
    1052:	28 96       	adiw	r28, 0x08	; 8
			if(((spuelen-(inZeit_ms-timer))>0)&&((spuelen-(inZeit_ms-timer))<10)){
    1054:	2f ad       	ldd	r18, Y+63	; 0x3f
    1056:	28 97       	sbiw	r28, 0x08	; 8
    1058:	29 96       	adiw	r28, 0x09	; 9
    105a:	3f ad       	ldd	r19, Y+63	; 0x3f
    105c:	29 97       	sbiw	r28, 0x09	; 9
    105e:	2a 96       	adiw	r28, 0x0a	; 10
    1060:	4f ad       	ldd	r20, Y+63	; 0x3f
    1062:	2a 97       	sbiw	r28, 0x0a	; 10
    1064:	2b 96       	adiw	r28, 0x0b	; 11
    1066:	5f ad       	ldd	r21, Y+63	; 0x3f
    1068:	2b 97       	sbiw	r28, 0x0b	; 11
    106a:	2c 96       	adiw	r28, 0x0c	; 12
    106c:	6f ad       	ldd	r22, Y+63	; 0x3f
    106e:	2c 97       	sbiw	r28, 0x0c	; 12
    1070:	2d 96       	adiw	r28, 0x0d	; 13
    1072:	7f ad       	ldd	r23, Y+63	; 0x3f
    1074:	2d 97       	sbiw	r28, 0x0d	; 13
    1076:	88 2d       	mov	r24, r8
    1078:	2e 96       	adiw	r28, 0x0e	; 14
    107a:	9f ad       	ldd	r25, Y+63	; 0x3f
    107c:	2e 97       	sbiw	r28, 0x0e	; 14
    107e:	af ef       	ldi	r26, 0xFF	; 255
    1080:	0e 94 63 10 	call	0x20c6	; 0x20c6 <__adddi3_s8>
    1084:	0f 90       	pop	r0
    1086:	0f 90       	pop	r0
    1088:	0f 90       	pop	r0
    108a:	0f 90       	pop	r0
    108c:	a8 e0       	ldi	r26, 0x08	; 8
    108e:	0e 94 78 10 	call	0x20f0	; 0x20f0 <__cmpdi2_s8>
    1092:	09 f0       	breq	.+2      	; 0x1096 <__EEPROM_REGION_LENGTH__+0x96>
    1094:	30 f5       	brcc	.+76     	; 0x10e2 <__EEPROM_REGION_LENGTH__+0xe2>
    1096:	99 ad       	ldd	r25, Y+57	; 0x39
				timer = inZeit_ms;
    1098:	2f 96       	adiw	r28, 0x0f	; 15
    109a:	9f af       	std	Y+63, r25	; 0x3f
    109c:	2f 97       	sbiw	r28, 0x0f	; 15
    109e:	2a ad       	ldd	r18, Y+58	; 0x3a
    10a0:	60 96       	adiw	r28, 0x10	; 16
    10a2:	2f af       	std	Y+63, r18	; 0x3f
    10a4:	60 97       	sbiw	r28, 0x10	; 16
    10a6:	3b ad       	ldd	r19, Y+59	; 0x3b
    10a8:	61 96       	adiw	r28, 0x11	; 17
    10aa:	3f af       	std	Y+63, r19	; 0x3f
    10ac:	61 97       	sbiw	r28, 0x11	; 17
    10ae:	8c ad       	ldd	r24, Y+60	; 0x3c
    10b0:	62 96       	adiw	r28, 0x12	; 18
    10b2:	8f af       	std	Y+63, r24	; 0x3f
    10b4:	62 97       	sbiw	r28, 0x12	; 18
    10b6:	9d ad       	ldd	r25, Y+61	; 0x3d
    10b8:	63 96       	adiw	r28, 0x13	; 19
    10ba:	9f af       	std	Y+63, r25	; 0x3f
    10bc:	63 97       	sbiw	r28, 0x13	; 19
    10be:	2e ad       	ldd	r18, Y+62	; 0x3e
    10c0:	64 96       	adiw	r28, 0x14	; 20
    10c2:	2f af       	std	Y+63, r18	; 0x3f
    10c4:	64 97       	sbiw	r28, 0x14	; 20
    10c6:	3f ad       	ldd	r19, Y+63	; 0x3f
    10c8:	65 96       	adiw	r28, 0x15	; 21
    10ca:	3f af       	std	Y+63, r19	; 0x3f
    10cc:	65 97       	sbiw	r28, 0x15	; 21
    10ce:	21 96       	adiw	r28, 0x01	; 1
    10d0:	8f ad       	ldd	r24, Y+63	; 0x3f
    10d2:	21 97       	sbiw	r28, 0x01	; 1
    10d4:	66 96       	adiw	r28, 0x16	; 22
    10d6:	8f af       	std	Y+63, r24	; 0x3f
    10d8:	66 97       	sbiw	r28, 0x16	; 22
    10da:	0f 2e       	mov	r0, r31
				zustand = Trocknen;
    10dc:	fb e0       	ldi	r31, 0x0B	; 11
    10de:	9f 2e       	mov	r9, r31
    10e0:	f0 2d       	mov	r31, r0
    10e2:	12 14       	cp	r1, r2
			}
			if(!inNotAus){
    10e4:	13 04       	cpc	r1, r3
    10e6:	0c f0       	brlt	.+2      	; 0x10ea <__EEPROM_REGION_LENGTH__+0xea>
    10e8:	91 2c       	mov	r9, r1
				zustand = NOTAUS;
    10ea:	91 e0       	ldi	r25, 0x01	; 1
			}
			if((!inFahrradsensor)|(!inWasser)){
    10ec:	23 96       	adiw	r28, 0x03	; 3
    10ee:	2e ad       	ldd	r18, Y+62	; 0x3e
    10f0:	3f ad       	ldd	r19, Y+63	; 0x3f
    10f2:	23 97       	sbiw	r28, 0x03	; 3
    10f4:	12 16       	cp	r1, r18
    10f6:	13 06       	cpc	r1, r19
    10f8:	0c f4       	brge	.+2      	; 0x10fc <__EEPROM_REGION_LENGTH__+0xfc>
    10fa:	90 e0       	ldi	r25, 0x00	; 0
    10fc:	81 e0       	ldi	r24, 0x01	; 1
    10fe:	25 96       	adiw	r28, 0x05	; 5
    1100:	2e ad       	ldd	r18, Y+62	; 0x3e
    1102:	3f ad       	ldd	r19, Y+63	; 0x3f
    1104:	25 97       	sbiw	r28, 0x05	; 5
    1106:	12 16       	cp	r1, r18
    1108:	13 06       	cpc	r1, r19
    110a:	0c f4       	brge	.+2      	; 0x110e <__EEPROM_REGION_LENGTH__+0x10e>
    110c:	80 e0       	ldi	r24, 0x00	; 0
    110e:	89 2b       	or	r24, r25
				zustand = Fehler;
				lcdWriteText(0,0,"                              ");
    1110:	b1 f0       	breq	.+44     	; 0x113e <__EEPROM_REGION_LENGTH__+0x13e>
    1112:	0a e5       	ldi	r16, 0x5A	; 90
    1114:	12 e0       	ldi	r17, 0x02	; 2
    1116:	1f 93       	push	r17
    1118:	0f 93       	push	r16
    111a:	1f 92       	push	r1
    111c:	1f 92       	push	r1
    111e:	3f d4       	rcall	.+2174   	; 0x199e <lcdWriteText>
				lcdWriteText(1,0,"                              ");
    1120:	1f 93       	push	r17
    1122:	0f 93       	push	r16
    1124:	1f 92       	push	r1
    1126:	81 e0       	ldi	r24, 0x01	; 1
    1128:	8f 93       	push	r24
    112a:	39 d4       	rcall	.+2162   	; 0x199e <lcdWriteText>
    112c:	0f b6       	in	r0, 0x3f	; 63
    112e:	f8 94       	cli
    1130:	de bf       	out	0x3e, r29	; 62
    1132:	0f be       	out	0x3f, r0	; 63
    1134:	cd bf       	out	0x3d, r28	; 61
			}
			if(!inNotAus){
				zustand = NOTAUS;
			}
			if((!inFahrradsensor)|(!inWasser)){
				zustand = Fehler;
    1136:	0f 2e       	mov	r0, r31
    1138:	fc e0       	ldi	r31, 0x0C	; 12
    113a:	9f 2e       	mov	r9, r31
    113c:	f0 2d       	mov	r31, r0
				lcdWriteText(0,0,"                              ");
				lcdWriteText(1,0,"                              ");
			}
			lcdWriteText(3,0,"Abbrechen:x");
    113e:	81 e9       	ldi	r24, 0x91	; 145
    1140:	92 e0       	ldi	r25, 0x02	; 2
    1142:	9f 93       	push	r25
    1144:	8f 93       	push	r24
    1146:	1f 92       	push	r1
    1148:	83 e0       	ldi	r24, 0x03	; 3
    114a:	8f 93       	push	r24
    114c:	28 d4       	rcall	.+2128   	; 0x199e <lcdWriteText>
    114e:	0f 90       	pop	r0
		if(button){
    1150:	0f 90       	pop	r0
    1152:	0f 90       	pop	r0
    1154:	0f 90       	pop	r0
    1156:	16 14       	cp	r1, r6
    1158:	17 04       	cpc	r1, r7
    115a:	0c f4       	brge	.+2      	; 0x115e <__EEPROM_REGION_LENGTH__+0x15e>
    115c:	dc c2       	rjmp	.+1464   	; 0x1716 <__EEPROM_REGION_LENGTH__+0x716>
    115e:	e2 c2       	rjmp	.+1476   	; 0x1724 <__EEPROM_REGION_LENGTH__+0x724>
    1160:	2f 96       	adiw	r28, 0x0f	; 15
			zustand = EIN;
		}
		break;
		
		case Trocknen: //-----------------------------------------------------------------------------------
		lcdWriteZahl(1,0,(trocknen-(inZeit_ms-timer))/1000+1,2,0);
    1162:	2f ad       	ldd	r18, Y+63	; 0x3f
    1164:	2f 97       	sbiw	r28, 0x0f	; 15
    1166:	60 96       	adiw	r28, 0x10	; 16
    1168:	3f ad       	ldd	r19, Y+63	; 0x3f
    116a:	60 97       	sbiw	r28, 0x10	; 16
    116c:	61 96       	adiw	r28, 0x11	; 17
    116e:	4f ad       	ldd	r20, Y+63	; 0x3f
    1170:	61 97       	sbiw	r28, 0x11	; 17
    1172:	62 96       	adiw	r28, 0x12	; 18
    1174:	5f ad       	ldd	r21, Y+63	; 0x3f
    1176:	62 97       	sbiw	r28, 0x12	; 18
    1178:	63 96       	adiw	r28, 0x13	; 19
    117a:	6f ad       	ldd	r22, Y+63	; 0x3f
    117c:	63 97       	sbiw	r28, 0x13	; 19
    117e:	64 96       	adiw	r28, 0x14	; 20
    1180:	7f ad       	ldd	r23, Y+63	; 0x3f
    1182:	64 97       	sbiw	r28, 0x14	; 20
    1184:	65 96       	adiw	r28, 0x15	; 21
    1186:	8f ad       	ldd	r24, Y+63	; 0x3f
    1188:	65 97       	sbiw	r28, 0x15	; 21
    118a:	66 96       	adiw	r28, 0x16	; 22
    118c:	9f ad       	ldd	r25, Y+63	; 0x3f
    118e:	66 97       	sbiw	r28, 0x16	; 22
    1190:	a9 ac       	ldd	r10, Y+57	; 0x39
    1192:	ba ac       	ldd	r11, Y+58	; 0x3a
    1194:	cb ac       	ldd	r12, Y+59	; 0x3b
    1196:	dc ac       	ldd	r13, Y+60	; 0x3c
    1198:	ed ac       	ldd	r14, Y+61	; 0x3d
    119a:	fe ac       	ldd	r15, Y+62	; 0x3e
    119c:	0f ad       	ldd	r16, Y+63	; 0x3f
    119e:	21 96       	adiw	r28, 0x01	; 1
    11a0:	1f ad       	ldd	r17, Y+63	; 0x3f
    11a2:	21 97       	sbiw	r28, 0x01	; 1
    11a4:	9c d7       	rcall	.+3896   	; 0x20de <__subdi3>
    11a6:	a2 2e       	mov	r10, r18
    11a8:	b3 2e       	mov	r11, r19
    11aa:	c4 2e       	mov	r12, r20
    11ac:	d5 2e       	mov	r13, r21
    11ae:	e6 2e       	mov	r14, r22
    11b0:	f7 2e       	mov	r15, r23
    11b2:	08 2f       	mov	r16, r24
    11b4:	19 2f       	mov	r17, r25
    11b6:	a9 96       	adiw	r28, 0x29	; 41
    11b8:	2f ad       	ldd	r18, Y+63	; 0x3f
    11ba:	a9 97       	sbiw	r28, 0x29	; 41
    11bc:	aa 96       	adiw	r28, 0x2a	; 42
    11be:	3f ad       	ldd	r19, Y+63	; 0x3f
    11c0:	aa 97       	sbiw	r28, 0x2a	; 42
    11c2:	ab 96       	adiw	r28, 0x2b	; 43
    11c4:	4f ad       	ldd	r20, Y+63	; 0x3f
    11c6:	ab 97       	sbiw	r28, 0x2b	; 43
    11c8:	ac 96       	adiw	r28, 0x2c	; 44
    11ca:	5f ad       	ldd	r21, Y+63	; 0x3f
    11cc:	ac 97       	sbiw	r28, 0x2c	; 44
    11ce:	ad 96       	adiw	r28, 0x2d	; 45
    11d0:	6f ad       	ldd	r22, Y+63	; 0x3f
    11d2:	ad 97       	sbiw	r28, 0x2d	; 45
    11d4:	ae 96       	adiw	r28, 0x2e	; 46
    11d6:	7f ad       	ldd	r23, Y+63	; 0x3f
    11d8:	ae 97       	sbiw	r28, 0x2e	; 46
    11da:	af 96       	adiw	r28, 0x2f	; 47
    11dc:	8f ad       	ldd	r24, Y+63	; 0x3f
    11de:	af 97       	sbiw	r28, 0x2f	; 47
    11e0:	e0 96       	adiw	r28, 0x30	; 48
    11e2:	9f ad       	ldd	r25, Y+63	; 0x3f
    11e4:	e0 97       	sbiw	r28, 0x30	; 48
    11e6:	66 d7       	rcall	.+3788   	; 0x20b4 <__adddi3>
    11e8:	29 af       	std	Y+57, r18	; 0x39
    11ea:	3a af       	std	Y+58, r19	; 0x3a
    11ec:	4b af       	std	Y+59, r20	; 0x3b
    11ee:	5c af       	std	Y+60, r21	; 0x3c
    11f0:	6d af       	std	Y+61, r22	; 0x3d
    11f2:	7e af       	std	Y+62, r23	; 0x3e
    11f4:	88 2e       	mov	r8, r24
    11f6:	9f af       	std	Y+63, r25	; 0x3f
    11f8:	0f 2e       	mov	r0, r31
    11fa:	f8 ee       	ldi	r31, 0xE8	; 232
    11fc:	af 2e       	mov	r10, r31
    11fe:	f0 2d       	mov	r31, r0
    1200:	0f 2e       	mov	r0, r31
    1202:	f3 e0       	ldi	r31, 0x03	; 3
    1204:	bf 2e       	mov	r11, r31
    1206:	f0 2d       	mov	r31, r0
    1208:	c1 2c       	mov	r12, r1
    120a:	d1 2c       	mov	r13, r1
    120c:	e1 2c       	mov	r14, r1
    120e:	f1 2c       	mov	r15, r1
    1210:	00 e0       	ldi	r16, 0x00	; 0
    1212:	10 e0       	ldi	r17, 0x00	; 0
    1214:	f3 d6       	rcall	.+3558   	; 0x1ffc <__udivdi3>
    1216:	a1 e0       	ldi	r26, 0x01	; 1
    1218:	56 d7       	rcall	.+3756   	; 0x20c6 <__adddi3_s8>
    121a:	a1 2c       	mov	r10, r1
    121c:	68 94       	set
    121e:	cc 24       	eor	r12, r12
    1220:	c1 f8       	bld	r12, 1
    1222:	e2 2e       	mov	r14, r18
    1224:	f3 2e       	mov	r15, r19
    1226:	04 2f       	mov	r16, r20
    1228:	15 2f       	mov	r17, r21
    122a:	26 2f       	mov	r18, r22
    122c:	37 2f       	mov	r19, r23
    122e:	48 2f       	mov	r20, r24
    1230:	59 2f       	mov	r21, r25
    1232:	60 e0       	ldi	r22, 0x00	; 0
    1234:	81 e0       	ldi	r24, 0x01	; 1
    1236:	ed d3       	rcall	.+2010   	; 0x1a12 <lcdWriteZahl>
		lcdWriteText(1,2,"s");
    1238:	89 e7       	ldi	r24, 0x79	; 121
    123a:	92 e0       	ldi	r25, 0x02	; 2
    123c:	9f 93       	push	r25
    123e:	8f 93       	push	r24
    1240:	82 e0       	ldi	r24, 0x02	; 2
    1242:	8f 93       	push	r24
    1244:	81 e0       	ldi	r24, 0x01	; 1
    1246:	8f 93       	push	r24
    1248:	aa d3       	rcall	.+1876   	; 0x199e <lcdWriteText>
			if(((trocknen-(inZeit_ms-timer))>0)&&((trocknen-(inZeit_ms-timer))<10)){
    124a:	29 ad       	ldd	r18, Y+57	; 0x39
    124c:	3a ad       	ldd	r19, Y+58	; 0x3a
    124e:	4b ad       	ldd	r20, Y+59	; 0x3b
    1250:	5c ad       	ldd	r21, Y+60	; 0x3c
    1252:	6d ad       	ldd	r22, Y+61	; 0x3d
    1254:	7e ad       	ldd	r23, Y+62	; 0x3e
    1256:	88 2d       	mov	r24, r8
    1258:	9f ad       	ldd	r25, Y+63	; 0x3f
    125a:	af ef       	ldi	r26, 0xFF	; 255
    125c:	34 d7       	rcall	.+3688   	; 0x20c6 <__adddi3_s8>
    125e:	0f 90       	pop	r0
    1260:	0f 90       	pop	r0
    1262:	0f 90       	pop	r0
    1264:	0f 90       	pop	r0
    1266:	a8 e0       	ldi	r26, 0x08	; 8
    1268:	43 d7       	rcall	.+3718   	; 0x20f0 <__cmpdi2_s8>
    126a:	09 f0       	breq	.+2      	; 0x126e <__EEPROM_REGION_LENGTH__+0x26e>
				zustand = EIN;
				lcdWriteText(1,0,"                              ");
    126c:	08 f5       	brcc	.+66     	; 0x12b0 <__EEPROM_REGION_LENGTH__+0x2b0>
    126e:	0a e5       	ldi	r16, 0x5A	; 90
    1270:	12 e0       	ldi	r17, 0x02	; 2
    1272:	1f 93       	push	r17
    1274:	0f 93       	push	r16
    1276:	1f 92       	push	r1
    1278:	81 e0       	ldi	r24, 0x01	; 1
    127a:	8f 93       	push	r24
    127c:	90 d3       	rcall	.+1824   	; 0x199e <lcdWriteText>
				lcdWriteText(2,0,"                              ");
    127e:	1f 93       	push	r17
    1280:	0f 93       	push	r16
    1282:	1f 92       	push	r1
    1284:	82 e0       	ldi	r24, 0x02	; 2
    1286:	8f 93       	push	r24
    1288:	8a d3       	rcall	.+1812   	; 0x199e <lcdWriteText>
    128a:	1f 93       	push	r17
				lcdWriteText(3,0,"                              ");
    128c:	0f 93       	push	r16
    128e:	1f 92       	push	r1
    1290:	83 e0       	ldi	r24, 0x03	; 3
    1292:	8f 93       	push	r24
    1294:	84 d3       	rcall	.+1800   	; 0x199e <lcdWriteText>
    1296:	1f 93       	push	r17
    1298:	0f 93       	push	r16
				lcdWriteText(0,0,"                              ");
    129a:	1f 92       	push	r1
    129c:	1f 92       	push	r1
    129e:	7f d3       	rcall	.+1790   	; 0x199e <lcdWriteText>
    12a0:	0f b6       	in	r0, 0x3f	; 63
    12a2:	f8 94       	cli
    12a4:	de bf       	out	0x3e, r29	; 62
    12a6:	0f be       	out	0x3f, r0	; 63
    12a8:	cd bf       	out	0x3d, r28	; 61
    12aa:	68 94       	set
    12ac:	99 24       	eor	r9, r9
    12ae:	91 f8       	bld	r9, 1
				zustand = EIN;
    12b0:	12 14       	cp	r1, r2
    12b2:	13 04       	cpc	r1, r3
    12b4:	0c f0       	brlt	.+2      	; 0x12b8 <__EEPROM_REGION_LENGTH__+0x2b8>
			}
			if(!inNotAus){
    12b6:	91 2c       	mov	r9, r1
    12b8:	91 e0       	ldi	r25, 0x01	; 1
				zustand = NOTAUS;
    12ba:	23 96       	adiw	r28, 0x03	; 3
			}
			if((!inFahrradsensor)|(!inWasser)){
    12bc:	2e ad       	ldd	r18, Y+62	; 0x3e
    12be:	3f ad       	ldd	r19, Y+63	; 0x3f
    12c0:	23 97       	sbiw	r28, 0x03	; 3
    12c2:	12 16       	cp	r1, r18
    12c4:	13 06       	cpc	r1, r19
    12c6:	0c f4       	brge	.+2      	; 0x12ca <__EEPROM_REGION_LENGTH__+0x2ca>
    12c8:	90 e0       	ldi	r25, 0x00	; 0
    12ca:	81 e0       	ldi	r24, 0x01	; 1
    12cc:	25 96       	adiw	r28, 0x05	; 5
    12ce:	2e ad       	ldd	r18, Y+62	; 0x3e
    12d0:	3f ad       	ldd	r19, Y+63	; 0x3f
    12d2:	25 97       	sbiw	r28, 0x05	; 5
    12d4:	12 16       	cp	r1, r18
    12d6:	13 06       	cpc	r1, r19
    12d8:	0c f4       	brge	.+2      	; 0x12dc <__EEPROM_REGION_LENGTH__+0x2dc>
    12da:	80 e0       	ldi	r24, 0x00	; 0
    12dc:	89 2b       	or	r24, r25
    12de:	b1 f0       	breq	.+44     	; 0x130c <__EEPROM_REGION_LENGTH__+0x30c>
    12e0:	0a e5       	ldi	r16, 0x5A	; 90
				zustand = Fehler;
				lcdWriteText(0,0,"                              ");
    12e2:	12 e0       	ldi	r17, 0x02	; 2
    12e4:	1f 93       	push	r17
    12e6:	0f 93       	push	r16
    12e8:	1f 92       	push	r1
    12ea:	1f 92       	push	r1
    12ec:	58 d3       	rcall	.+1712   	; 0x199e <lcdWriteText>
    12ee:	1f 93       	push	r17
				lcdWriteText(1,0,"                              ");
    12f0:	0f 93       	push	r16
    12f2:	1f 92       	push	r1
    12f4:	81 e0       	ldi	r24, 0x01	; 1
    12f6:	8f 93       	push	r24
    12f8:	52 d3       	rcall	.+1700   	; 0x199e <lcdWriteText>
    12fa:	0f b6       	in	r0, 0x3f	; 63
    12fc:	f8 94       	cli
    12fe:	de bf       	out	0x3e, r29	; 62
    1300:	0f be       	out	0x3f, r0	; 63
    1302:	cd bf       	out	0x3d, r28	; 61
    1304:	0f 2e       	mov	r0, r31
			}
			if(!inNotAus){
				zustand = NOTAUS;
			}
			if((!inFahrradsensor)|(!inWasser)){
				zustand = Fehler;
    1306:	fc e0       	ldi	r31, 0x0C	; 12
    1308:	9f 2e       	mov	r9, r31
    130a:	f0 2d       	mov	r31, r0
    130c:	81 e9       	ldi	r24, 0x91	; 145
				lcdWriteText(0,0,"                              ");
				lcdWriteText(1,0,"                              ");
			}
			lcdWriteText(3,0,"Abbrechen:x");
    130e:	92 e0       	ldi	r25, 0x02	; 2
    1310:	9f 93       	push	r25
    1312:	8f 93       	push	r24
    1314:	1f 92       	push	r1
    1316:	83 e0       	ldi	r24, 0x03	; 3
    1318:	8f 93       	push	r24
    131a:	41 d3       	rcall	.+1666   	; 0x199e <lcdWriteText>
    131c:	0f 90       	pop	r0
    131e:	0f 90       	pop	r0
		if(button){
    1320:	0f 90       	pop	r0
    1322:	0f 90       	pop	r0
    1324:	16 14       	cp	r1, r6
    1326:	17 04       	cpc	r1, r7
    1328:	0c f4       	brge	.+2      	; 0x132c <__EEPROM_REGION_LENGTH__+0x32c>
    132a:	f9 c1       	rjmp	.+1010   	; 0x171e <__EEPROM_REGION_LENGTH__+0x71e>
    132c:	fb c1       	rjmp	.+1014   	; 0x1724 <__EEPROM_REGION_LENGTH__+0x724>
    132e:	8d e9       	ldi	r24, 0x9D	; 157
			zustand = EIN;
		}
		break;
		
		case Fehler://Fehler-------------------------------------------------------------------------------
		lcdWriteText(3,0,"Back:x                   ");
    1330:	92 e0       	ldi	r25, 0x02	; 2
    1332:	9f 93       	push	r25
    1334:	8f 93       	push	r24
    1336:	1f 92       	push	r1
    1338:	83 e0       	ldi	r24, 0x03	; 3
    133a:	8f 93       	push	r24
    133c:	30 d3       	rcall	.+1632   	; 0x199e <lcdWriteText>
    133e:	0f 90       	pop	r0
    1340:	0f 90       	pop	r0
			if(!inFahrradsensor){
    1342:	0f 90       	pop	r0
    1344:	0f 90       	pop	r0
    1346:	23 96       	adiw	r28, 0x03	; 3
    1348:	2e ad       	ldd	r18, Y+62	; 0x3e
    134a:	3f ad       	ldd	r19, Y+63	; 0x3f
    134c:	23 97       	sbiw	r28, 0x03	; 3
    134e:	12 16       	cp	r1, r18
    1350:	13 06       	cpc	r1, r19
    1352:	64 f0       	brlt	.+24     	; 0x136c <__EEPROM_REGION_LENGTH__+0x36c>
    1354:	87 eb       	ldi	r24, 0xB7	; 183
				lcdWriteText(1,0,"Bycicle missing!!!!");
    1356:	92 e0       	ldi	r25, 0x02	; 2
    1358:	9f 93       	push	r25
    135a:	8f 93       	push	r24
    135c:	1f 92       	push	r1
    135e:	81 e0       	ldi	r24, 0x01	; 1
    1360:	8f 93       	push	r24
    1362:	1d d3       	rcall	.+1594   	; 0x199e <lcdWriteText>
    1364:	0f 90       	pop	r0
    1366:	0f 90       	pop	r0
    1368:	0f 90       	pop	r0
    136a:	0f 90       	pop	r0
    136c:	25 96       	adiw	r28, 0x05	; 5
			}
			if(!inWasser){
    136e:	8e ad       	ldd	r24, Y+62	; 0x3e
    1370:	9f ad       	ldd	r25, Y+63	; 0x3f
    1372:	25 97       	sbiw	r28, 0x05	; 5
    1374:	18 16       	cp	r1, r24
    1376:	19 06       	cpc	r1, r25
    1378:	64 f0       	brlt	.+24     	; 0x1392 <__EEPROM_REGION_LENGTH__+0x392>
				lcdWriteText(2,0,"No WATER!!!!");
    137a:	8b ec       	ldi	r24, 0xCB	; 203
    137c:	92 e0       	ldi	r25, 0x02	; 2
    137e:	9f 93       	push	r25
    1380:	8f 93       	push	r24
    1382:	1f 92       	push	r1
    1384:	82 e0       	ldi	r24, 0x02	; 2
    1386:	8f 93       	push	r24
    1388:	0a d3       	rcall	.+1556   	; 0x199e <lcdWriteText>
    138a:	0f 90       	pop	r0
    138c:	0f 90       	pop	r0
    138e:	0f 90       	pop	r0
    1390:	0f 90       	pop	r0
    1392:	16 14       	cp	r1, r6
			}
			if(button){
    1394:	17 04       	cpc	r1, r7
    1396:	0c f0       	brlt	.+2      	; 0x139a <__EEPROM_REGION_LENGTH__+0x39a>
    1398:	c5 c1       	rjmp	.+906    	; 0x1724 <__EEPROM_REGION_LENGTH__+0x724>
    139a:	0a e5       	ldi	r16, 0x5A	; 90
				zustand = EIN;
				lcdWriteText(1,0,"                              ");
    139c:	12 e0       	ldi	r17, 0x02	; 2
    139e:	1f 93       	push	r17
    13a0:	0f 93       	push	r16
    13a2:	1f 92       	push	r1
    13a4:	81 e0       	ldi	r24, 0x01	; 1
    13a6:	8f 93       	push	r24
    13a8:	fa d2       	rcall	.+1524   	; 0x199e <lcdWriteText>
    13aa:	1f 93       	push	r17
    13ac:	0f 93       	push	r16
				lcdWriteText(2,0,"                              ");
    13ae:	1f 92       	push	r1
    13b0:	82 e0       	ldi	r24, 0x02	; 2
    13b2:	8f 93       	push	r24
    13b4:	f4 d2       	rcall	.+1512   	; 0x199e <lcdWriteText>
    13b6:	0f b6       	in	r0, 0x3f	; 63
    13b8:	f8 94       	cli
    13ba:	de bf       	out	0x3e, r29	; 62
    13bc:	0f be       	out	0x3f, r0	; 63
    13be:	cd bf       	out	0x3d, r28	; 61
    13c0:	68 94       	set
    13c2:	99 24       	eor	r9, r9
			}
			if(!inWasser){
				lcdWriteText(2,0,"No WATER!!!!");
			}
			if(button){
				zustand = EIN;
    13c4:	91 f8       	bld	r9, 1
    13c6:	ae c1       	rjmp	.+860    	; 0x1724 <__EEPROM_REGION_LENGTH__+0x724>
    13c8:	68 96       	adiw	r28, 0x18	; 24
    13ca:	3f ad       	ldd	r19, Y+63	; 0x3f
		case Pause://----------------------------------------------------------------------------------------
			
		break;
		
		case Wartung://Wartung------------------------------------------------------------------------
			lcdWriteText(1,0,wartungen[programmwahl_position]);
    13cc:	68 97       	sbiw	r28, 0x18	; 24
    13ce:	e3 2e       	mov	r14, r19
    13d0:	f1 2c       	mov	r15, r1
    13d2:	f7 01       	movw	r30, r14
    13d4:	ee 0f       	add	r30, r30
    13d6:	ff 1f       	adc	r31, r31
    13d8:	81 e0       	ldi	r24, 0x01	; 1
    13da:	90 e0       	ldi	r25, 0x00	; 0
    13dc:	8c 0f       	add	r24, r28
    13de:	9d 1f       	adc	r25, r29
    13e0:	e8 0f       	add	r30, r24
    13e2:	f9 1f       	adc	r31, r25
    13e4:	84 a5       	ldd	r24, Z+44	; 0x2c
    13e6:	95 a5       	ldd	r25, Z+45	; 0x2d
    13e8:	9f 93       	push	r25
    13ea:	8f 93       	push	r24
    13ec:	1f 92       	push	r1
    13ee:	81 e0       	ldi	r24, 0x01	; 1
    13f0:	8f 93       	push	r24
    13f2:	d5 d2       	rcall	.+1450   	; 0x199e <lcdWriteText>
    13f4:	f7 01       	movw	r30, r14
			lcdWriteText(2,0,wartungen[programmwahl_position+1]);
    13f6:	31 96       	adiw	r30, 0x01	; 1
    13f8:	ee 0f       	add	r30, r30
    13fa:	ff 1f       	adc	r31, r31
    13fc:	21 e0       	ldi	r18, 0x01	; 1
    13fe:	30 e0       	ldi	r19, 0x00	; 0
    1400:	2c 0f       	add	r18, r28
    1402:	3d 1f       	adc	r19, r29
    1404:	e2 0f       	add	r30, r18
    1406:	f3 1f       	adc	r31, r19
    1408:	84 a5       	ldd	r24, Z+44	; 0x2c
    140a:	95 a5       	ldd	r25, Z+45	; 0x2d
    140c:	9f 93       	push	r25
    140e:	8f 93       	push	r24
    1410:	1f 92       	push	r1
    1412:	82 e0       	ldi	r24, 0x02	; 2
    1414:	8f 93       	push	r24
    1416:	c3 d2       	rcall	.+1414   	; 0x199e <lcdWriteText>
    1418:	f7 01       	movw	r30, r14
			lcdWriteText(3,0,wartungen[programmwahl_position+2]);
    141a:	32 96       	adiw	r30, 0x02	; 2
    141c:	ee 0f       	add	r30, r30
    141e:	ff 1f       	adc	r31, r31
    1420:	81 e0       	ldi	r24, 0x01	; 1
    1422:	90 e0       	ldi	r25, 0x00	; 0
    1424:	8c 0f       	add	r24, r28
    1426:	9d 1f       	adc	r25, r29
    1428:	e8 0f       	add	r30, r24
    142a:	f9 1f       	adc	r31, r25
    142c:	84 a5       	ldd	r24, Z+44	; 0x2c
    142e:	95 a5       	ldd	r25, Z+45	; 0x2d
    1430:	9f 93       	push	r25
    1432:	8f 93       	push	r24
    1434:	1f 92       	push	r1
    1436:	83 e0       	ldi	r24, 0x03	; 3
    1438:	8f 93       	push	r24
    143a:	b1 d2       	rcall	.+1378   	; 0x199e <lcdWriteText>
    143c:	8b e9       	ldi	r24, 0x9B	; 155
    143e:	92 e0       	ldi	r25, 0x02	; 2
			lcdWriteText(position,18,"x");
    1440:	9f 93       	push	r25
    1442:	8f 93       	push	r24
    1444:	0f 2e       	mov	r0, r31
    1446:	f2 e1       	ldi	r31, 0x12	; 18
    1448:	ff 2e       	mov	r15, r31
    144a:	f0 2d       	mov	r31, r0
    144c:	ff 92       	push	r15
    144e:	5f 92       	push	r5
    1450:	a6 d2       	rcall	.+1356   	; 0x199e <lcdWriteText>
    1452:	87 e7       	ldi	r24, 0x77	; 119
    1454:	92 e0       	ldi	r25, 0x02	; 2
    1456:	9f 93       	push	r25
			lcdWriteText(position_old,18," ");
    1458:	8f 93       	push	r24
    145a:	ff 92       	push	r15
    145c:	67 96       	adiw	r28, 0x17	; 23
    145e:	9f ad       	ldd	r25, Y+63	; 0x3f
    1460:	67 97       	sbiw	r28, 0x17	; 23
    1462:	9f 93       	push	r25
    1464:	9c d2       	rcall	.+1336   	; 0x199e <lcdWriteText>
    1466:	0f b6       	in	r0, 0x3f	; 63
    1468:	f8 94       	cli
    146a:	de bf       	out	0x3e, r29	; 62
			if((position==3)&&(y<300)&&(!programmwahl_position)&&(!runter_flag)){
    146c:	0f be       	out	0x3f, r0	; 63
    146e:	cd bf       	out	0x3d, r28	; 61
    1470:	33 e0       	ldi	r19, 0x03	; 3
    1472:	53 12       	cpse	r5, r19
    1474:	20 c0       	rjmp	.+64     	; 0x14b6 <__EEPROM_REGION_LENGTH__+0x4b6>
    1476:	0c 32       	cpi	r16, 0x2C	; 44
    1478:	81 e0       	ldi	r24, 0x01	; 1
    147a:	18 07       	cpc	r17, r24
    147c:	e0 f4       	brcc	.+56     	; 0x14b6 <__EEPROM_REGION_LENGTH__+0x4b6>
    147e:	68 96       	adiw	r28, 0x18	; 24
    1480:	9f ad       	ldd	r25, Y+63	; 0x3f
    1482:	68 97       	sbiw	r28, 0x18	; 24
    1484:	91 11       	cpse	r25, r1
    1486:	17 c0       	rjmp	.+46     	; 0x14b6 <__EEPROM_REGION_LENGTH__+0x4b6>
    1488:	27 96       	adiw	r28, 0x07	; 7
    148a:	2f ad       	ldd	r18, Y+63	; 0x3f
    148c:	27 97       	sbiw	r28, 0x07	; 7
    148e:	21 11       	cpse	r18, r1
    1490:	12 c0       	rjmp	.+36     	; 0x14b6 <__EEPROM_REGION_LENGTH__+0x4b6>
    1492:	9e 5f       	subi	r25, 0xFE	; 254
    1494:	68 96       	adiw	r28, 0x18	; 24
    1496:	9f af       	std	Y+63, r25	; 0x3f
				programmwahl_position += 2;
    1498:	68 97       	sbiw	r28, 0x18	; 24
    149a:	87 e7       	ldi	r24, 0x77	; 119
    149c:	92 e0       	ldi	r25, 0x02	; 2
    149e:	9f 93       	push	r25
				lcdWriteText(3,18," ");
    14a0:	8f 93       	push	r24
    14a2:	82 e1       	ldi	r24, 0x12	; 18
    14a4:	8f 93       	push	r24
    14a6:	83 e0       	ldi	r24, 0x03	; 3
    14a8:	8f 93       	push	r24
    14aa:	79 d2       	rcall	.+1266   	; 0x199e <lcdWriteText>
    14ac:	0f 90       	pop	r0
    14ae:	0f 90       	pop	r0
    14b0:	0f 90       	pop	r0
    14b2:	0f 90       	pop	r0
    14b4:	51 2c       	mov	r5, r1
    14b6:	31 e0       	ldi	r19, 0x01	; 1
    14b8:	53 12       	cpse	r5, r19
				position = 0;
    14ba:	21 c0       	rjmp	.+66     	; 0x14fe <__EEPROM_REGION_LENGTH__+0x4fe>
			}
			if((position==1)&&(y>700)&&(programmwahl_position)&&(!hoch_flag)){
    14bc:	0d 3b       	cpi	r16, 0xBD	; 189
    14be:	12 40       	sbci	r17, 0x02	; 2
    14c0:	f0 f0       	brcs	.+60     	; 0x14fe <__EEPROM_REGION_LENGTH__+0x4fe>
    14c2:	68 96       	adiw	r28, 0x18	; 24
    14c4:	9f ad       	ldd	r25, Y+63	; 0x3f
    14c6:	68 97       	sbiw	r28, 0x18	; 24
    14c8:	99 23       	and	r25, r25
    14ca:	c9 f0       	breq	.+50     	; 0x14fe <__EEPROM_REGION_LENGTH__+0x4fe>
    14cc:	26 96       	adiw	r28, 0x06	; 6
    14ce:	2f ad       	ldd	r18, Y+63	; 0x3f
    14d0:	26 97       	sbiw	r28, 0x06	; 6
    14d2:	21 11       	cpse	r18, r1
    14d4:	14 c0       	rjmp	.+40     	; 0x14fe <__EEPROM_REGION_LENGTH__+0x4fe>
    14d6:	92 50       	subi	r25, 0x02	; 2
    14d8:	68 96       	adiw	r28, 0x18	; 24
    14da:	9f af       	std	Y+63, r25	; 0x3f
				programmwahl_position -= 2;
    14dc:	68 97       	sbiw	r28, 0x18	; 24
    14de:	87 e7       	ldi	r24, 0x77	; 119
    14e0:	92 e0       	ldi	r25, 0x02	; 2
    14e2:	9f 93       	push	r25
				lcdWriteText(1,18," ");
    14e4:	8f 93       	push	r24
    14e6:	82 e1       	ldi	r24, 0x12	; 18
    14e8:	8f 93       	push	r24
    14ea:	81 e0       	ldi	r24, 0x01	; 1
    14ec:	8f 93       	push	r24
    14ee:	57 d2       	rcall	.+1198   	; 0x199e <lcdWriteText>
    14f0:	0f 90       	pop	r0
    14f2:	0f 90       	pop	r0
    14f4:	0f 90       	pop	r0
    14f6:	0f 90       	pop	r0
    14f8:	68 94       	set
    14fa:	55 24       	eor	r5, r5
    14fc:	51 f8       	bld	r5, 1
    14fe:	31 e0       	ldi	r19, 0x01	; 1
				position = 2;
    1500:	53 12       	cpse	r5, r19
    1502:	0c c0       	rjmp	.+24     	; 0x151c <__EEPROM_REGION_LENGTH__+0x51c>
    1504:	16 14       	cp	r1, r6
			}
			if((position==1)&&button&&(!programmwahl_position)){
    1506:	17 04       	cpc	r1, r7
    1508:	4c f4       	brge	.+18     	; 0x151c <__EEPROM_REGION_LENGTH__+0x51c>
    150a:	68 96       	adiw	r28, 0x18	; 24
    150c:	8f ad       	ldd	r24, Y+63	; 0x3f
    150e:	68 97       	sbiw	r28, 0x18	; 24
    1510:	81 11       	cpse	r24, r1
    1512:	04 c0       	rjmp	.+8      	; 0x151c <__EEPROM_REGION_LENGTH__+0x51c>
    1514:	0f 2e       	mov	r0, r31
    1516:	fe e0       	ldi	r31, 0x0E	; 14
    1518:	9f 2e       	mov	r9, r31
    151a:	f0 2d       	mov	r31, r0
				zustand = Ventil_Test;
    151c:	92 e0       	ldi	r25, 0x02	; 2
    151e:	59 12       	cpse	r5, r25
    1520:	0c c0       	rjmp	.+24     	; 0x153a <__EEPROM_REGION_LENGTH__+0x53a>
    1522:	16 14       	cp	r1, r6
			}
			if((position==2)&&button&&(!programmwahl_position)){
    1524:	17 04       	cpc	r1, r7
    1526:	4c f4       	brge	.+18     	; 0x153a <__EEPROM_REGION_LENGTH__+0x53a>
    1528:	68 96       	adiw	r28, 0x18	; 24
    152a:	2f ad       	ldd	r18, Y+63	; 0x3f
    152c:	68 97       	sbiw	r28, 0x18	; 24
    152e:	21 11       	cpse	r18, r1
    1530:	04 c0       	rjmp	.+8      	; 0x153a <__EEPROM_REGION_LENGTH__+0x53a>
    1532:	0f 2e       	mov	r0, r31
    1534:	ff e0       	ldi	r31, 0x0F	; 15
    1536:	9f 2e       	mov	r9, r31
    1538:	f0 2d       	mov	r31, r0
				zustand = Trockner_Test;
    153a:	33 e0       	ldi	r19, 0x03	; 3
    153c:	53 12       	cpse	r5, r19
    153e:	0b c0       	rjmp	.+22     	; 0x1556 <__EEPROM_REGION_LENGTH__+0x556>
    1540:	16 14       	cp	r1, r6
			}
			if((position==3)&&button&&(!programmwahl_position)){
    1542:	17 04       	cpc	r1, r7
    1544:	44 f4       	brge	.+16     	; 0x1556 <__EEPROM_REGION_LENGTH__+0x556>
    1546:	68 96       	adiw	r28, 0x18	; 24
    1548:	8f ad       	ldd	r24, Y+63	; 0x3f
    154a:	68 97       	sbiw	r28, 0x18	; 24
    154c:	81 11       	cpse	r24, r1
    154e:	03 c0       	rjmp	.+6      	; 0x1556 <__EEPROM_REGION_LENGTH__+0x556>
    1550:	68 94       	set
    1552:	99 24       	eor	r9, r9
    1554:	94 f8       	bld	r9, 4
    1556:	91 e0       	ldi	r25, 0x01	; 1
				zustand = Buersten_Test;
    1558:	59 12       	cpse	r5, r25
    155a:	0b c0       	rjmp	.+22     	; 0x1572 <__EEPROM_REGION_LENGTH__+0x572>
    155c:	16 14       	cp	r1, r6
			}
			if((position==1)&&button&&(programmwahl_position)){
    155e:	17 04       	cpc	r1, r7
    1560:	44 f4       	brge	.+16     	; 0x1572 <__EEPROM_REGION_LENGTH__+0x572>
    1562:	68 96       	adiw	r28, 0x18	; 24
    1564:	2f ad       	ldd	r18, Y+63	; 0x3f
    1566:	68 97       	sbiw	r28, 0x18	; 24
    1568:	22 23       	and	r18, r18
    156a:	19 f0       	breq	.+6      	; 0x1572 <__EEPROM_REGION_LENGTH__+0x572>
    156c:	68 94       	set
    156e:	99 24       	eor	r9, r9
    1570:	94 f8       	bld	r9, 4
				zustand = Buersten_Test;
    1572:	32 e0       	ldi	r19, 0x02	; 2
    1574:	53 12       	cpse	r5, r19
			}
			if((position==2)&&button&&(programmwahl_position)){
    1576:	0c c0       	rjmp	.+24     	; 0x1590 <__EEPROM_REGION_LENGTH__+0x590>
    1578:	16 14       	cp	r1, r6
    157a:	17 04       	cpc	r1, r7
    157c:	4c f4       	brge	.+18     	; 0x1590 <__EEPROM_REGION_LENGTH__+0x590>
    157e:	68 96       	adiw	r28, 0x18	; 24
    1580:	8f ad       	ldd	r24, Y+63	; 0x3f
    1582:	68 97       	sbiw	r28, 0x18	; 24
    1584:	88 23       	and	r24, r24
    1586:	21 f0       	breq	.+8      	; 0x1590 <__EEPROM_REGION_LENGTH__+0x590>
    1588:	0f 2e       	mov	r0, r31
    158a:	f1 e1       	ldi	r31, 0x11	; 17
				zustand = Wasserpumpne_Test;
    158c:	9f 2e       	mov	r9, r31
    158e:	f0 2d       	mov	r31, r0
    1590:	93 e0       	ldi	r25, 0x03	; 3
    1592:	59 12       	cpse	r5, r25
			}
			if((position==3)&&button&&(programmwahl_position)){
    1594:	c7 c0       	rjmp	.+398    	; 0x1724 <__EEPROM_REGION_LENGTH__+0x724>
    1596:	16 14       	cp	r1, r6
    1598:	17 04       	cpc	r1, r7
    159a:	0c f0       	brlt	.+2      	; 0x159e <__EEPROM_REGION_LENGTH__+0x59e>
    159c:	c3 c0       	rjmp	.+390    	; 0x1724 <__EEPROM_REGION_LENGTH__+0x724>
    159e:	68 96       	adiw	r28, 0x18	; 24
    15a0:	2f ad       	ldd	r18, Y+63	; 0x3f
    15a2:	68 97       	sbiw	r28, 0x18	; 24
    15a4:	22 23       	and	r18, r18
    15a6:	09 f4       	brne	.+2      	; 0x15aa <__EEPROM_REGION_LENGTH__+0x5aa>
    15a8:	bd c0       	rjmp	.+378    	; 0x1724 <__EEPROM_REGION_LENGTH__+0x724>
    15aa:	06 e6       	ldi	r16, 0x66	; 102
    15ac:	12 e0       	ldi	r17, 0x02	; 2
				lcdWriteText(1,0,"                  ");
    15ae:	1f 93       	push	r17
    15b0:	0f 93       	push	r16
    15b2:	1f 92       	push	r1
    15b4:	81 e0       	ldi	r24, 0x01	; 1
    15b6:	8f 93       	push	r24
    15b8:	f2 d1       	rcall	.+996    	; 0x199e <lcdWriteText>
    15ba:	1f 93       	push	r17
    15bc:	0f 93       	push	r16
    15be:	1f 92       	push	r1
				lcdWriteText(2,0,"                  ");
    15c0:	82 e0       	ldi	r24, 0x02	; 2
    15c2:	8f 93       	push	r24
    15c4:	ec d1       	rcall	.+984    	; 0x199e <lcdWriteText>
    15c6:	0f b6       	in	r0, 0x3f	; 63
    15c8:	f8 94       	cli
    15ca:	de bf       	out	0x3e, r29	; 62
    15cc:	0f be       	out	0x3f, r0	; 63
    15ce:	cd bf       	out	0x3d, r28	; 61
    15d0:	68 94       	set
    15d2:	99 24       	eor	r9, r9
    15d4:	91 f8       	bld	r9, 1
    15d6:	a6 c0       	rjmp	.+332    	; 0x1724 <__EEPROM_REGION_LENGTH__+0x724>
				zustand = EIN;
    15d8:	99 ad       	ldd	r25, Y+57	; 0x39
    15da:	2f 96       	adiw	r28, 0x0f	; 15
    15dc:	9f af       	std	Y+63, r25	; 0x3f
    15de:	2f 97       	sbiw	r28, 0x0f	; 15
		case Premium://-----------------------------------------------------------------------------------
			vorwaesche = 5000;
			hauptwaesche = 20000;
			spuelen = 10000;
			trocknen = 10000;
			timer = inZeit_ms;
    15e0:	2a ad       	ldd	r18, Y+58	; 0x3a
    15e2:	60 96       	adiw	r28, 0x10	; 16
    15e4:	2f af       	std	Y+63, r18	; 0x3f
    15e6:	60 97       	sbiw	r28, 0x10	; 16
    15e8:	3b ad       	ldd	r19, Y+59	; 0x3b
    15ea:	61 96       	adiw	r28, 0x11	; 17
    15ec:	3f af       	std	Y+63, r19	; 0x3f
    15ee:	61 97       	sbiw	r28, 0x11	; 17
    15f0:	8c ad       	ldd	r24, Y+60	; 0x3c
    15f2:	62 96       	adiw	r28, 0x12	; 18
    15f4:	8f af       	std	Y+63, r24	; 0x3f
    15f6:	62 97       	sbiw	r28, 0x12	; 18
    15f8:	9d ad       	ldd	r25, Y+61	; 0x3d
    15fa:	63 96       	adiw	r28, 0x13	; 19
    15fc:	9f af       	std	Y+63, r25	; 0x3f
    15fe:	63 97       	sbiw	r28, 0x13	; 19
    1600:	2e ad       	ldd	r18, Y+62	; 0x3e
    1602:	64 96       	adiw	r28, 0x14	; 20
    1604:	2f af       	std	Y+63, r18	; 0x3f
    1606:	64 97       	sbiw	r28, 0x14	; 20
    1608:	3f ad       	ldd	r19, Y+63	; 0x3f
    160a:	65 96       	adiw	r28, 0x15	; 21
    160c:	3f af       	std	Y+63, r19	; 0x3f
    160e:	65 97       	sbiw	r28, 0x15	; 21
    1610:	21 96       	adiw	r28, 0x01	; 1
    1612:	8f ad       	ldd	r24, Y+63	; 0x3f
    1614:	21 97       	sbiw	r28, 0x01	; 1
    1616:	66 96       	adiw	r28, 0x16	; 22
    1618:	8f af       	std	Y+63, r24	; 0x3f
    161a:	66 97       	sbiw	r28, 0x16	; 22
    161c:	90 e1       	ldi	r25, 0x10	; 16
    161e:	a9 96       	adiw	r28, 0x29	; 41
    1620:	9f af       	std	Y+63, r25	; 0x3f
    1622:	a9 97       	sbiw	r28, 0x29	; 41
		
		case Premium://-----------------------------------------------------------------------------------
			vorwaesche = 5000;
			hauptwaesche = 20000;
			spuelen = 10000;
			trocknen = 10000;
    1624:	27 e2       	ldi	r18, 0x27	; 39
    1626:	aa 96       	adiw	r28, 0x2a	; 42
    1628:	2f af       	std	Y+63, r18	; 0x3f
    162a:	aa 97       	sbiw	r28, 0x2a	; 42
    162c:	ab 96       	adiw	r28, 0x2b	; 43
    162e:	1f ae       	std	Y+63, r1	; 0x3f
    1630:	ab 97       	sbiw	r28, 0x2b	; 43
    1632:	ac 96       	adiw	r28, 0x2c	; 44
    1634:	1f ae       	std	Y+63, r1	; 0x3f
    1636:	ac 97       	sbiw	r28, 0x2c	; 44
    1638:	ad 96       	adiw	r28, 0x2d	; 45
    163a:	1f ae       	std	Y+63, r1	; 0x3f
    163c:	ad 97       	sbiw	r28, 0x2d	; 45
    163e:	ae 96       	adiw	r28, 0x2e	; 46
    1640:	1f ae       	std	Y+63, r1	; 0x3f
    1642:	ae 97       	sbiw	r28, 0x2e	; 46
    1644:	af 96       	adiw	r28, 0x2f	; 47
    1646:	1f ae       	std	Y+63, r1	; 0x3f
    1648:	af 97       	sbiw	r28, 0x2f	; 47
    164a:	e0 96       	adiw	r28, 0x30	; 48
    164c:	1f ae       	std	Y+63, r1	; 0x3f
    164e:	e0 97       	sbiw	r28, 0x30	; 48
    1650:	30 e1       	ldi	r19, 0x10	; 16
    1652:	a1 96       	adiw	r28, 0x21	; 33
    1654:	3f af       	std	Y+63, r19	; 0x3f
    1656:	a1 97       	sbiw	r28, 0x21	; 33
		break;
		
		case Premium://-----------------------------------------------------------------------------------
			vorwaesche = 5000;
			hauptwaesche = 20000;
			spuelen = 10000;
    1658:	87 e2       	ldi	r24, 0x27	; 39
    165a:	a2 96       	adiw	r28, 0x22	; 34
    165c:	8f af       	std	Y+63, r24	; 0x3f
    165e:	a2 97       	sbiw	r28, 0x22	; 34
    1660:	a3 96       	adiw	r28, 0x23	; 35
    1662:	1f ae       	std	Y+63, r1	; 0x3f
    1664:	a3 97       	sbiw	r28, 0x23	; 35
    1666:	a4 96       	adiw	r28, 0x24	; 36
    1668:	1f ae       	std	Y+63, r1	; 0x3f
    166a:	a4 97       	sbiw	r28, 0x24	; 36
    166c:	a5 96       	adiw	r28, 0x25	; 37
    166e:	1f ae       	std	Y+63, r1	; 0x3f
    1670:	a5 97       	sbiw	r28, 0x25	; 37
    1672:	a6 96       	adiw	r28, 0x26	; 38
    1674:	1f ae       	std	Y+63, r1	; 0x3f
    1676:	a6 97       	sbiw	r28, 0x26	; 38
    1678:	a7 96       	adiw	r28, 0x27	; 39
    167a:	1f ae       	std	Y+63, r1	; 0x3f
    167c:	a7 97       	sbiw	r28, 0x27	; 39
    167e:	a8 96       	adiw	r28, 0x28	; 40
    1680:	1f ae       	std	Y+63, r1	; 0x3f
    1682:	a8 97       	sbiw	r28, 0x28	; 40
    1684:	90 e2       	ldi	r25, 0x20	; 32
    1686:	69 96       	adiw	r28, 0x19	; 25
    1688:	9f af       	std	Y+63, r25	; 0x3f
    168a:	69 97       	sbiw	r28, 0x19	; 25
			}
		break;
		
		case Premium://-----------------------------------------------------------------------------------
			vorwaesche = 5000;
			hauptwaesche = 20000;
    168c:	2e e4       	ldi	r18, 0x4E	; 78
    168e:	6a 96       	adiw	r28, 0x1a	; 26
    1690:	2f af       	std	Y+63, r18	; 0x3f
    1692:	6a 97       	sbiw	r28, 0x1a	; 26
    1694:	6b 96       	adiw	r28, 0x1b	; 27
    1696:	1f ae       	std	Y+63, r1	; 0x3f
    1698:	6b 97       	sbiw	r28, 0x1b	; 27
    169a:	6c 96       	adiw	r28, 0x1c	; 28
    169c:	1f ae       	std	Y+63, r1	; 0x3f
    169e:	6c 97       	sbiw	r28, 0x1c	; 28
    16a0:	6d 96       	adiw	r28, 0x1d	; 29
    16a2:	1f ae       	std	Y+63, r1	; 0x3f
    16a4:	6d 97       	sbiw	r28, 0x1d	; 29
    16a6:	6e 96       	adiw	r28, 0x1e	; 30
    16a8:	1f ae       	std	Y+63, r1	; 0x3f
    16aa:	6e 97       	sbiw	r28, 0x1e	; 30
    16ac:	6f 96       	adiw	r28, 0x1f	; 31
    16ae:	1f ae       	std	Y+63, r1	; 0x3f
    16b0:	6f 97       	sbiw	r28, 0x1f	; 31
    16b2:	a0 96       	adiw	r28, 0x20	; 32
    16b4:	1f ae       	std	Y+63, r1	; 0x3f
    16b6:	a0 97       	sbiw	r28, 0x20	; 32
    16b8:	38 e8       	ldi	r19, 0x88	; 136
    16ba:	e1 96       	adiw	r28, 0x31	; 49
    16bc:	3f af       	std	Y+63, r19	; 0x3f
    16be:	e1 97       	sbiw	r28, 0x31	; 49
				zustand = Schnell;
			}
		break;
		
		case Premium://-----------------------------------------------------------------------------------
			vorwaesche = 5000;
    16c0:	83 e1       	ldi	r24, 0x13	; 19
    16c2:	e2 96       	adiw	r28, 0x32	; 50
    16c4:	8f af       	std	Y+63, r24	; 0x3f
    16c6:	e2 97       	sbiw	r28, 0x32	; 50
    16c8:	e3 96       	adiw	r28, 0x33	; 51
    16ca:	1f ae       	std	Y+63, r1	; 0x3f
    16cc:	e3 97       	sbiw	r28, 0x33	; 51
    16ce:	e4 96       	adiw	r28, 0x34	; 52
    16d0:	1f ae       	std	Y+63, r1	; 0x3f
    16d2:	e4 97       	sbiw	r28, 0x34	; 52
    16d4:	e5 96       	adiw	r28, 0x35	; 53
    16d6:	1f ae       	std	Y+63, r1	; 0x3f
    16d8:	e5 97       	sbiw	r28, 0x35	; 53
    16da:	e6 96       	adiw	r28, 0x36	; 54
    16dc:	1f ae       	std	Y+63, r1	; 0x3f
    16de:	e6 97       	sbiw	r28, 0x36	; 54
    16e0:	e7 96       	adiw	r28, 0x37	; 55
    16e2:	1f ae       	std	Y+63, r1	; 0x3f
    16e4:	e7 97       	sbiw	r28, 0x37	; 55
    16e6:	e8 96       	adiw	r28, 0x38	; 56
    16e8:	1f ae       	std	Y+63, r1	; 0x3f
    16ea:	e8 97       	sbiw	r28, 0x38	; 56
    16ec:	68 94       	set
    16ee:	99 24       	eor	r9, r9
    16f0:	93 f8       	bld	r9, 3
			hauptwaesche = 20000;
			spuelen = 10000;
			trocknen = 10000;
			timer = inZeit_ms;
			zustand = Vorwaesche;
    16f2:	18 c0       	rjmp	.+48     	; 0x1724 <__EEPROM_REGION_LENGTH__+0x724>
    16f4:	68 96       	adiw	r28, 0x18	; 24
    16f6:	1f ae       	std	Y+63, r1	; 0x3f
    16f8:	68 97       	sbiw	r28, 0x18	; 24
				zustand = Programmwahl;
				lcdWriteText(1,0,"                              ");
				lcdWriteText(2,0,"                              ");
				lcdWriteText(3,0,"                              ");
			}
			programmwahl_position = 0;
    16fa:	14 c0       	rjmp	.+40     	; 0x1724 <__EEPROM_REGION_LENGTH__+0x724>
    16fc:	68 96       	adiw	r28, 0x18	; 24
    16fe:	1f ae       	std	Y+63, r1	; 0x3f
    1700:	68 97       	sbiw	r28, 0x18	; 24
    1702:	10 c0       	rjmp	.+32     	; 0x1724 <__EEPROM_REGION_LENGTH__+0x724>
    1704:	0f 2e       	mov	r0, r31
    1706:	fd e0       	ldi	r31, 0x0D	; 13
    1708:	9f 2e       	mov	r9, r31
		}
			lcdWriteText(position,10,"x");
			lcdWriteText(position_old,10," ");
			lcdWriteText(2,0,"Pause    :");
		if((position==2)&&button){
			zustand = Pause;
    170a:	f0 2d       	mov	r31, r0
    170c:	0b c0       	rjmp	.+22     	; 0x1724 <__EEPROM_REGION_LENGTH__+0x724>
    170e:	68 94       	set
    1710:	99 24       	eor	r9, r9
    1712:	91 f8       	bld	r9, 1
				lcdWriteText(0,0,"                              ");
				lcdWriteText(1,0,"                              ");
			}
			lcdWriteText(3,0,"Abbrechen:x");
		if(button){
			zustand = EIN;
    1714:	07 c0       	rjmp	.+14     	; 0x1724 <__EEPROM_REGION_LENGTH__+0x724>
    1716:	68 94       	set
    1718:	99 24       	eor	r9, r9
    171a:	91 f8       	bld	r9, 1
				lcdWriteText(0,0,"                              ");
				lcdWriteText(1,0,"                              ");
			}
			lcdWriteText(3,0,"Abbrechen:x");
		if(button){
			zustand = EIN;
    171c:	03 c0       	rjmp	.+6      	; 0x1724 <__EEPROM_REGION_LENGTH__+0x724>
    171e:	68 94       	set
    1720:	99 24       	eor	r9, r9
    1722:	91 f8       	bld	r9, 1
				lcdWriteText(0,0,"                              ");
				lcdWriteText(1,0,"                              ");
			}
			lcdWriteText(3,0,"Abbrechen:x");
		if(button){
			zustand = EIN;
    1724:	e9 2d       	mov	r30, r9
    1726:	f0 e0       	ldi	r31, 0x00	; 0
    1728:	ee 0f       	add	r30, r30
				zustand = EIN;
			}
		break;
	}
//Ausgabe
	lcdWriteText(0,0,states[zustand]);
    172a:	ff 1f       	adc	r31, r31
    172c:	21 e0       	ldi	r18, 0x01	; 1
    172e:	30 e0       	ldi	r19, 0x00	; 0
    1730:	2c 0f       	add	r18, r28
    1732:	3d 1f       	adc	r19, r29
    1734:	e2 0f       	add	r30, r18
    1736:	f3 1f       	adc	r31, r19
    1738:	80 81       	ld	r24, Z
    173a:	91 81       	ldd	r25, Z+1	; 0x01
    173c:	9f 93       	push	r25
    173e:	8f 93       	push	r24
    1740:	1f 92       	push	r1
    1742:	1f 92       	push	r1
    1744:	2c d1       	rcall	.+600    	; 0x199e <lcdWriteText>
    1746:	84 2c       	mov	r8, r4
    1748:	0f 90       	pop	r0
    174a:	0f 90       	pop	r0
    174c:	0f 90       	pop	r0
	inWasser = (schalter & MASKE_WASSER)>0;
	
	inZeit_ms = getSystemTimeMs();
	
	joystick_alt = joystick_neu;
	joystick_neu = joystik_button;
    174e:	0f 90       	pop	r0
			}
		break;
	}
//Ausgabe
	lcdWriteText(0,0,states[zustand]);
    }
    1750:	0c 94 53 01 	jmp	0x2a6	; 0x2a6 <main+0x166>

00001754 <ledWriteAll>:
    1754:	82 b9       	out	0x02, r24	; 2
    1756:	95 b9       	out	0x05, r25	; 5
    1758:	08 95       	ret

0000175a <buttonReadAllPL>:
    175a:	80 91 09 01 	lds	r24, 0x0109	; 0x800109 <__TEXT_REGION_LENGTH__+0x7c0109>
            }
        }
        matrix_buffer_pos += breite + Zeichenabstand;           // Position für das nächste Zeichen berechnen
        str_p++;                                                // Zeichen-Zeiger auf das nächste Zeichen richten
    }
}
    175e:	08 95       	ret

00001760 <startSystemTimeMs>:
    1760:	83 e0       	ldi	r24, 0x03	; 3
    1762:	84 bd       	out	0x24, r24	; 36
    1764:	8b e0       	ldi	r24, 0x0B	; 11
    1766:	85 bd       	out	0x25, r24	; 37
    1768:	81 e0       	ldi	r24, 0x01	; 1
    176a:	80 93 6e 00 	sts	0x006E, r24	; 0x80006e <__TEXT_REGION_LENGTH__+0x7c006e>
    176e:	89 ef       	ldi	r24, 0xF9	; 249
    1770:	87 bd       	out	0x27, r24	; 39
    1772:	08 95       	ret

00001774 <getSystemTimeMs>:
    1774:	20 91 b1 04 	lds	r18, 0x04B1	; 0x8004b1 <systemTimeMs>
    1778:	30 91 b2 04 	lds	r19, 0x04B2	; 0x8004b2 <systemTimeMs+0x1>
    177c:	40 91 b3 04 	lds	r20, 0x04B3	; 0x8004b3 <systemTimeMs+0x2>
    1780:	50 91 b4 04 	lds	r21, 0x04B4	; 0x8004b4 <systemTimeMs+0x3>
    1784:	60 91 b5 04 	lds	r22, 0x04B5	; 0x8004b5 <systemTimeMs+0x4>
    1788:	70 91 b6 04 	lds	r23, 0x04B6	; 0x8004b6 <systemTimeMs+0x5>
    178c:	80 91 b7 04 	lds	r24, 0x04B7	; 0x8004b7 <systemTimeMs+0x6>
    1790:	90 91 b8 04 	lds	r25, 0x04B8	; 0x8004b8 <systemTimeMs+0x7>
    1794:	08 95       	ret

00001796 <initAdc>:
    1796:	11 ba       	out	0x11, r1	; 17
    1798:	10 ba       	out	0x10, r1	; 16
    179a:	10 92 08 01 	sts	0x0108, r1	; 0x800108 <__TEXT_REGION_LENGTH__+0x7c0108>
    179e:	10 92 07 01 	sts	0x0107, r1	; 0x800107 <__TEXT_REGION_LENGTH__+0x7c0107>
    17a2:	80 e4       	ldi	r24, 0x40	; 64
    17a4:	80 93 7c 00 	sts	0x007C, r24	; 0x80007c <__TEXT_REGION_LENGTH__+0x7c007c>
    17a8:	8f e0       	ldi	r24, 0x0F	; 15
    17aa:	80 93 7e 00 	sts	0x007E, r24	; 0x80007e <__TEXT_REGION_LENGTH__+0x7c007e>
    17ae:	8f ef       	ldi	r24, 0xFF	; 255
    17b0:	80 93 7d 00 	sts	0x007D, r24	; 0x80007d <__TEXT_REGION_LENGTH__+0x7c007d>
    17b4:	87 e8       	ldi	r24, 0x87	; 135
    17b6:	80 93 7a 00 	sts	0x007A, r24	; 0x80007a <__TEXT_REGION_LENGTH__+0x7c007a>
    17ba:	10 92 7b 00 	sts	0x007B, r1	; 0x80007b <__TEXT_REGION_LENGTH__+0x7c007b>
    17be:	08 95       	ret

000017c0 <adcRead>:
    17c0:	ec e7       	ldi	r30, 0x7C	; 124
    17c2:	f0 e0       	ldi	r31, 0x00	; 0
    17c4:	90 81       	ld	r25, Z
    17c6:	90 7f       	andi	r25, 0xF0	; 240
    17c8:	90 83       	st	Z, r25
    17ca:	28 2f       	mov	r18, r24
    17cc:	27 70       	andi	r18, 0x07	; 7
    17ce:	92 2b       	or	r25, r18
    17d0:	90 83       	st	Z, r25
    17d2:	eb e7       	ldi	r30, 0x7B	; 123
    17d4:	f0 e0       	ldi	r31, 0x00	; 0
    17d6:	90 81       	ld	r25, Z
    17d8:	97 7f       	andi	r25, 0xF7	; 247
    17da:	88 70       	andi	r24, 0x08	; 8
    17dc:	89 2b       	or	r24, r25
    17de:	80 83       	st	Z, r24
    17e0:	ea e7       	ldi	r30, 0x7A	; 122
    17e2:	f0 e0       	ldi	r31, 0x00	; 0
    17e4:	80 81       	ld	r24, Z
    17e6:	80 64       	ori	r24, 0x40	; 64
    17e8:	80 83       	st	Z, r24
    17ea:	80 91 7a 00 	lds	r24, 0x007A	; 0x80007a <__TEXT_REGION_LENGTH__+0x7c007a>
    17ee:	86 fd       	sbrc	r24, 6
    17f0:	fc cf       	rjmp	.-8      	; 0x17ea <adcRead+0x2a>
    17f2:	80 91 78 00 	lds	r24, 0x0078	; 0x800078 <__TEXT_REGION_LENGTH__+0x7c0078>
    17f6:	90 91 79 00 	lds	r25, 0x0079	; 0x800079 <__TEXT_REGION_LENGTH__+0x7c0079>
    17fa:	08 95       	ret

000017fc <rgbWrite>:
    17fc:	2f ef       	ldi	r18, 0xFF	; 255
    17fe:	33 e0       	ldi	r19, 0x03	; 3
    1800:	f9 01       	movw	r30, r18
    1802:	e8 1b       	sub	r30, r24
    1804:	f9 0b       	sbc	r31, r25
    1806:	c9 01       	movw	r24, r18
    1808:	86 1b       	sub	r24, r22
    180a:	97 0b       	sbc	r25, r23
    180c:	24 1b       	sub	r18, r20
    180e:	35 0b       	sbc	r19, r21
    1810:	f0 93 a9 00 	sts	0x00A9, r31	; 0x8000a9 <__TEXT_REGION_LENGTH__+0x7c00a9>
    1814:	e0 93 a8 00 	sts	0x00A8, r30	; 0x8000a8 <__TEXT_REGION_LENGTH__+0x7c00a8>
    1818:	90 93 ab 00 	sts	0x00AB, r25	; 0x8000ab <__TEXT_REGION_LENGTH__+0x7c00ab>
    181c:	80 93 aa 00 	sts	0x00AA, r24	; 0x8000aa <__TEXT_REGION_LENGTH__+0x7c00aa>
    1820:	30 93 ad 00 	sts	0x00AD, r19	; 0x8000ad <__TEXT_REGION_LENGTH__+0x7c00ad>
    1824:	20 93 ac 00 	sts	0x00AC, r18	; 0x8000ac <__TEXT_REGION_LENGTH__+0x7c00ac>
    1828:	08 95       	ret

0000182a <initRgb>:
    182a:	8e ef       	ldi	r24, 0xFE	; 254
    182c:	80 93 a0 00 	sts	0x00A0, r24	; 0x8000a0 <__TEXT_REGION_LENGTH__+0x7c00a0>
    1830:	8b e1       	ldi	r24, 0x1B	; 27
    1832:	80 93 a1 00 	sts	0x00A1, r24	; 0x8000a1 <__TEXT_REGION_LENGTH__+0x7c00a1>
    1836:	83 e0       	ldi	r24, 0x03	; 3
    1838:	80 93 a7 00 	sts	0x00A7, r24	; 0x8000a7 <__TEXT_REGION_LENGTH__+0x7c00a7>
    183c:	8f ef       	ldi	r24, 0xFF	; 255
    183e:	80 93 a6 00 	sts	0x00A6, r24	; 0x8000a6 <__TEXT_REGION_LENGTH__+0x7c00a6>
    1842:	40 e0       	ldi	r20, 0x00	; 0
    1844:	50 e0       	ldi	r21, 0x00	; 0
    1846:	60 e0       	ldi	r22, 0x00	; 0
    1848:	70 e0       	ldi	r23, 0x00	; 0
    184a:	80 e0       	ldi	r24, 0x00	; 0
    184c:	90 e0       	ldi	r25, 0x00	; 0
    184e:	d6 cf       	rjmp	.-84     	; 0x17fc <rgbWrite>
    1850:	08 95       	ret

00001852 <lcdSid>:
    1852:	88 23       	and	r24, r24
    1854:	21 f0       	breq	.+8      	; 0x185e <lcdSid+0xc>
    1856:	84 b3       	in	r24, 0x14	; 20
    1858:	81 60       	ori	r24, 0x01	; 1
    185a:	84 bb       	out	0x14, r24	; 20
    185c:	08 95       	ret
    185e:	84 b3       	in	r24, 0x14	; 20
    1860:	8e 7f       	andi	r24, 0xFE	; 254
    1862:	84 bb       	out	0x14, r24	; 20
    1864:	08 95       	ret

00001866 <lcdSclk>:
    1866:	88 23       	and	r24, r24
    1868:	21 f0       	breq	.+8      	; 0x1872 <lcdSclk+0xc>
    186a:	84 b3       	in	r24, 0x14	; 20
    186c:	82 60       	ori	r24, 0x02	; 2
    186e:	84 bb       	out	0x14, r24	; 20
    1870:	08 95       	ret
    1872:	84 b3       	in	r24, 0x14	; 20
    1874:	8d 7f       	andi	r24, 0xFD	; 253
    1876:	84 bb       	out	0x14, r24	; 20
    1878:	08 95       	ret

0000187a <lcdLight>:
    187a:	81 11       	cpse	r24, r1
    187c:	04 c0       	rjmp	.+8      	; 0x1886 <lcdLight+0xc>
    187e:	84 b5       	in	r24, 0x24	; 36
    1880:	8f 7d       	andi	r24, 0xDF	; 223
    1882:	84 bd       	out	0x24, r24	; 36
    1884:	08 95       	ret
    1886:	94 b5       	in	r25, 0x24	; 36
    1888:	90 62       	ori	r25, 0x20	; 32
    188a:	94 bd       	out	0x24, r25	; 36
    188c:	88 bd       	out	0x28, r24	; 40
    188e:	08 95       	ret

00001890 <writeLcdF>:
    1890:	ef 92       	push	r14
    1892:	ff 92       	push	r15
    1894:	0f 93       	push	r16
    1896:	1f 93       	push	r17
    1898:	cf 93       	push	r28
    189a:	df 93       	push	r29
    189c:	7c 01       	movw	r14, r24
    189e:	eb 01       	movw	r28, r22
    18a0:	81 e0       	ldi	r24, 0x01	; 1
    18a2:	d7 df       	rcall	.-82     	; 0x1852 <lcdSid>
    18a4:	00 e0       	ldi	r16, 0x00	; 0
    18a6:	10 e0       	ldi	r17, 0x00	; 0
    18a8:	06 c0       	rjmp	.+12     	; 0x18b6 <writeLcdF+0x26>
    18aa:	80 e0       	ldi	r24, 0x00	; 0
    18ac:	dc df       	rcall	.-72     	; 0x1866 <lcdSclk>
    18ae:	81 e0       	ldi	r24, 0x01	; 1
    18b0:	da df       	rcall	.-76     	; 0x1866 <lcdSclk>
    18b2:	0f 5f       	subi	r16, 0xFF	; 255
    18b4:	1f 4f       	sbci	r17, 0xFF	; 255
    18b6:	05 30       	cpi	r16, 0x05	; 5
    18b8:	11 05       	cpc	r17, r1
    18ba:	b8 f3       	brcs	.-18     	; 0x18aa <writeLcdF+0x1a>
    18bc:	80 e0       	ldi	r24, 0x00	; 0
    18be:	c9 df       	rcall	.-110    	; 0x1852 <lcdSid>
    18c0:	80 e0       	ldi	r24, 0x00	; 0
    18c2:	d1 df       	rcall	.-94     	; 0x1866 <lcdSclk>
    18c4:	81 e0       	ldi	r24, 0x01	; 1
    18c6:	cf df       	rcall	.-98     	; 0x1866 <lcdSclk>
    18c8:	83 e4       	ldi	r24, 0x43	; 67
    18ca:	e8 16       	cp	r14, r24
    18cc:	f1 04       	cpc	r15, r1
    18ce:	19 f4       	brne	.+6      	; 0x18d6 <writeLcdF+0x46>
    18d0:	80 e0       	ldi	r24, 0x00	; 0
    18d2:	bf df       	rcall	.-130    	; 0x1852 <lcdSid>
    18d4:	02 c0       	rjmp	.+4      	; 0x18da <writeLcdF+0x4a>
    18d6:	81 e0       	ldi	r24, 0x01	; 1
    18d8:	bc df       	rcall	.-136    	; 0x1852 <lcdSid>
    18da:	80 e0       	ldi	r24, 0x00	; 0
    18dc:	c4 df       	rcall	.-120    	; 0x1866 <lcdSclk>
    18de:	81 e0       	ldi	r24, 0x01	; 1
    18e0:	c2 df       	rcall	.-124    	; 0x1866 <lcdSclk>
    18e2:	80 e0       	ldi	r24, 0x00	; 0
    18e4:	b6 df       	rcall	.-148    	; 0x1852 <lcdSid>
    18e6:	80 e0       	ldi	r24, 0x00	; 0
    18e8:	be df       	rcall	.-132    	; 0x1866 <lcdSclk>
    18ea:	81 e0       	ldi	r24, 0x01	; 1
    18ec:	bc df       	rcall	.-136    	; 0x1866 <lcdSclk>
    18ee:	00 e0       	ldi	r16, 0x00	; 0
    18f0:	10 e0       	ldi	r17, 0x00	; 0
    18f2:	11 c0       	rjmp	.+34     	; 0x1916 <writeLcdF+0x86>
    18f4:	80 e0       	ldi	r24, 0x00	; 0
    18f6:	b7 df       	rcall	.-146    	; 0x1866 <lcdSclk>
    18f8:	c0 ff       	sbrs	r28, 0
    18fa:	03 c0       	rjmp	.+6      	; 0x1902 <writeLcdF+0x72>
    18fc:	81 e0       	ldi	r24, 0x01	; 1
    18fe:	a9 df       	rcall	.-174    	; 0x1852 <lcdSid>
    1900:	02 c0       	rjmp	.+4      	; 0x1906 <writeLcdF+0x76>
    1902:	80 e0       	ldi	r24, 0x00	; 0
    1904:	a6 df       	rcall	.-180    	; 0x1852 <lcdSid>
    1906:	d6 95       	lsr	r29
    1908:	c7 95       	ror	r28
    190a:	80 e0       	ldi	r24, 0x00	; 0
    190c:	ac df       	rcall	.-168    	; 0x1866 <lcdSclk>
    190e:	81 e0       	ldi	r24, 0x01	; 1
    1910:	aa df       	rcall	.-172    	; 0x1866 <lcdSclk>
    1912:	0f 5f       	subi	r16, 0xFF	; 255
    1914:	1f 4f       	sbci	r17, 0xFF	; 255
    1916:	04 30       	cpi	r16, 0x04	; 4
    1918:	11 05       	cpc	r17, r1
    191a:	60 f3       	brcs	.-40     	; 0x18f4 <writeLcdF+0x64>
    191c:	80 e0       	ldi	r24, 0x00	; 0
    191e:	99 df       	rcall	.-206    	; 0x1852 <lcdSid>
    1920:	00 e0       	ldi	r16, 0x00	; 0
    1922:	10 e0       	ldi	r17, 0x00	; 0
    1924:	06 c0       	rjmp	.+12     	; 0x1932 <writeLcdF+0xa2>
    1926:	80 e0       	ldi	r24, 0x00	; 0
    1928:	9e df       	rcall	.-196    	; 0x1866 <lcdSclk>
    192a:	81 e0       	ldi	r24, 0x01	; 1
    192c:	9c df       	rcall	.-200    	; 0x1866 <lcdSclk>
    192e:	0f 5f       	subi	r16, 0xFF	; 255
    1930:	1f 4f       	sbci	r17, 0xFF	; 255
    1932:	04 30       	cpi	r16, 0x04	; 4
    1934:	11 05       	cpc	r17, r1
    1936:	b8 f3       	brcs	.-18     	; 0x1926 <writeLcdF+0x96>
    1938:	00 e0       	ldi	r16, 0x00	; 0
    193a:	10 e0       	ldi	r17, 0x00	; 0
    193c:	11 c0       	rjmp	.+34     	; 0x1960 <writeLcdF+0xd0>
    193e:	80 e0       	ldi	r24, 0x00	; 0
    1940:	92 df       	rcall	.-220    	; 0x1866 <lcdSclk>
    1942:	c0 ff       	sbrs	r28, 0
    1944:	03 c0       	rjmp	.+6      	; 0x194c <writeLcdF+0xbc>
    1946:	81 e0       	ldi	r24, 0x01	; 1
    1948:	84 df       	rcall	.-248    	; 0x1852 <lcdSid>
    194a:	02 c0       	rjmp	.+4      	; 0x1950 <writeLcdF+0xc0>
    194c:	80 e0       	ldi	r24, 0x00	; 0
    194e:	81 df       	rcall	.-254    	; 0x1852 <lcdSid>
    1950:	d6 95       	lsr	r29
    1952:	c7 95       	ror	r28
    1954:	80 e0       	ldi	r24, 0x00	; 0
    1956:	87 df       	rcall	.-242    	; 0x1866 <lcdSclk>
    1958:	81 e0       	ldi	r24, 0x01	; 1
    195a:	85 df       	rcall	.-246    	; 0x1866 <lcdSclk>
    195c:	0f 5f       	subi	r16, 0xFF	; 255
    195e:	1f 4f       	sbci	r17, 0xFF	; 255
    1960:	04 30       	cpi	r16, 0x04	; 4
    1962:	11 05       	cpc	r17, r1
    1964:	60 f3       	brcs	.-40     	; 0x193e <writeLcdF+0xae>
    1966:	80 e0       	ldi	r24, 0x00	; 0
    1968:	74 df       	rcall	.-280    	; 0x1852 <lcdSid>
    196a:	c0 e0       	ldi	r28, 0x00	; 0
    196c:	d0 e0       	ldi	r29, 0x00	; 0
    196e:	05 c0       	rjmp	.+10     	; 0x197a <writeLcdF+0xea>
    1970:	80 e0       	ldi	r24, 0x00	; 0
    1972:	79 df       	rcall	.-270    	; 0x1866 <lcdSclk>
    1974:	81 e0       	ldi	r24, 0x01	; 1
    1976:	77 df       	rcall	.-274    	; 0x1866 <lcdSclk>
    1978:	21 96       	adiw	r28, 0x01	; 1
    197a:	c4 30       	cpi	r28, 0x04	; 4
    197c:	d1 05       	cpc	r29, r1
    197e:	c0 f3       	brcs	.-16     	; 0x1970 <writeLcdF+0xe0>
    1980:	81 e0       	ldi	r24, 0x01	; 1
    1982:	67 df       	rcall	.-306    	; 0x1852 <lcdSid>
    1984:	87 ec       	ldi	r24, 0xC7	; 199
    1986:	90 e0       	ldi	r25, 0x00	; 0
    1988:	01 97       	sbiw	r24, 0x01	; 1
    198a:	f1 f7       	brne	.-4      	; 0x1988 <writeLcdF+0xf8>
    198c:	00 c0       	rjmp	.+0      	; 0x198e <writeLcdF+0xfe>
    198e:	00 00       	nop
    1990:	df 91       	pop	r29
    1992:	cf 91       	pop	r28
    1994:	1f 91       	pop	r17
    1996:	0f 91       	pop	r16
    1998:	ff 90       	pop	r15
    199a:	ef 90       	pop	r14
    199c:	08 95       	ret

0000199e <lcdWriteText>:
    199e:	1f 93       	push	r17
    19a0:	cf 93       	push	r28
    19a2:	df 93       	push	r29
    19a4:	cd b7       	in	r28, 0x3d	; 61
    19a6:	de b7       	in	r29, 0x3e	; 62
    19a8:	65 97       	sbiw	r28, 0x15	; 21
    19aa:	0f b6       	in	r0, 0x3f	; 63
    19ac:	f8 94       	cli
    19ae:	de bf       	out	0x3e, r29	; 62
    19b0:	0f be       	out	0x3f, r0	; 63
    19b2:	cd bf       	out	0x3d, r28	; 61
    19b4:	9e 01       	movw	r18, r28
    19b6:	20 5e       	subi	r18, 0xE0	; 224
    19b8:	3f 4f       	sbci	r19, 0xFF	; 255
    19ba:	4e 8d       	ldd	r20, Y+30	; 0x1e
    19bc:	5f 8d       	ldd	r21, Y+31	; 0x1f
    19be:	65 e1       	ldi	r22, 0x15	; 21
    19c0:	70 e0       	ldi	r23, 0x00	; 0
    19c2:	ce 01       	movw	r24, r28
    19c4:	01 96       	adiw	r24, 0x01	; 1
    19c6:	a0 d3       	rcall	.+1856   	; 0x2108 <vsnprintf>
    19c8:	6d 8d       	ldd	r22, Y+29	; 0x1d
    19ca:	8c 8d       	ldd	r24, Y+28	; 0x1c
    19cc:	90 e2       	ldi	r25, 0x20	; 32
    19ce:	89 9f       	mul	r24, r25
    19d0:	60 0d       	add	r22, r0
    19d2:	11 24       	eor	r1, r1
    19d4:	60 68       	ori	r22, 0x80	; 128
    19d6:	70 e0       	ldi	r23, 0x00	; 0
    19d8:	83 e4       	ldi	r24, 0x43	; 67
    19da:	90 e0       	ldi	r25, 0x00	; 0
    19dc:	59 df       	rcall	.-334    	; 0x1890 <writeLcdF>
    19de:	10 e0       	ldi	r17, 0x00	; 0
    19e0:	05 c0       	rjmp	.+10     	; 0x19ec <lcdWriteText+0x4e>
    19e2:	1f 5f       	subi	r17, 0xFF	; 255
    19e4:	70 e0       	ldi	r23, 0x00	; 0
    19e6:	84 e4       	ldi	r24, 0x44	; 68
    19e8:	90 e0       	ldi	r25, 0x00	; 0
    19ea:	52 df       	rcall	.-348    	; 0x1890 <writeLcdF>
    19ec:	e1 e0       	ldi	r30, 0x01	; 1
    19ee:	f0 e0       	ldi	r31, 0x00	; 0
    19f0:	ec 0f       	add	r30, r28
    19f2:	fd 1f       	adc	r31, r29
    19f4:	e1 0f       	add	r30, r17
    19f6:	f1 1d       	adc	r31, r1
    19f8:	60 81       	ld	r22, Z
    19fa:	61 11       	cpse	r22, r1
    19fc:	f2 cf       	rjmp	.-28     	; 0x19e2 <lcdWriteText+0x44>
    19fe:	65 96       	adiw	r28, 0x15	; 21
    1a00:	0f b6       	in	r0, 0x3f	; 63
    1a02:	f8 94       	cli
    1a04:	de bf       	out	0x3e, r29	; 62
    1a06:	0f be       	out	0x3f, r0	; 63
    1a08:	cd bf       	out	0x3d, r28	; 61
    1a0a:	df 91       	pop	r29
    1a0c:	cf 91       	pop	r28
    1a0e:	1f 91       	pop	r17
    1a10:	08 95       	ret

00001a12 <lcdWriteZahl>:
    1a12:	2f 92       	push	r2
    1a14:	3f 92       	push	r3
    1a16:	4f 92       	push	r4
    1a18:	5f 92       	push	r5
    1a1a:	6f 92       	push	r6
    1a1c:	7f 92       	push	r7
    1a1e:	8f 92       	push	r8
    1a20:	9f 92       	push	r9
    1a22:	af 92       	push	r10
    1a24:	bf 92       	push	r11
    1a26:	cf 92       	push	r12
    1a28:	df 92       	push	r13
    1a2a:	ef 92       	push	r14
    1a2c:	ff 92       	push	r15
    1a2e:	0f 93       	push	r16
    1a30:	1f 93       	push	r17
    1a32:	cf 93       	push	r28
    1a34:	df 93       	push	r29
    1a36:	cd b7       	in	r28, 0x3d	; 61
    1a38:	de b7       	in	r29, 0x3e	; 62
    1a3a:	e4 97       	sbiw	r28, 0x34	; 52
    1a3c:	0f b6       	in	r0, 0x3f	; 63
    1a3e:	f8 94       	cli
    1a40:	de bf       	out	0x3e, r29	; 62
    1a42:	0f be       	out	0x3f, r0	; 63
    1a44:	cd bf       	out	0x3d, r28	; 61
    1a46:	88 ab       	std	Y+48, r24	; 0x30
    1a48:	69 ab       	std	Y+49, r22	; 0x31
    1a4a:	eb a6       	std	Y+43, r14	; 0x2b
    1a4c:	fc a6       	std	Y+44, r15	; 0x2c
    1a4e:	50 2e       	mov	r5, r16
    1a50:	41 2e       	mov	r4, r17
    1a52:	2d a7       	std	Y+45, r18	; 0x2d
    1a54:	3a ab       	std	Y+50, r19	; 0x32
    1a56:	34 2e       	mov	r3, r20
    1a58:	25 2e       	mov	r2, r21
    1a5a:	7c 2c       	mov	r7, r12
    1a5c:	ae a6       	std	Y+46, r10	; 0x2e
    1a5e:	2a 2d       	mov	r18, r10
    1a60:	2c 0d       	add	r18, r12
    1a62:	2f a7       	std	Y+47, r18	; 0x2f
    1a64:	25 31       	cpi	r18, 0x15	; 21
    1a66:	70 f0       	brcs	.+28     	; 0x1a84 <lcdWriteZahl+0x72>
    1a68:	83 e4       	ldi	r24, 0x43	; 67
    1a6a:	94 e0       	ldi	r25, 0x04	; 4
    1a6c:	9f 93       	push	r25
    1a6e:	8f 93       	push	r24
    1a70:	89 a9       	ldd	r24, Y+49	; 0x31
    1a72:	8f 93       	push	r24
    1a74:	28 a9       	ldd	r18, Y+48	; 0x30
    1a76:	2f 93       	push	r18
    1a78:	92 df       	rcall	.-220    	; 0x199e <lcdWriteText>
    1a7a:	0f 90       	pop	r0
    1a7c:	0f 90       	pop	r0
    1a7e:	0f 90       	pop	r0
    1a80:	0f 90       	pop	r0
    1a82:	af c0       	rjmp	.+350    	; 0x1be2 <lcdWriteZahl+0x1d0>
    1a84:	8e a5       	ldd	r24, Y+46	; 0x2e
    1a86:	81 11       	cpse	r24, r1
    1a88:	02 c0       	rjmp	.+4      	; 0x1a8e <lcdWriteZahl+0x7c>
    1a8a:	1c aa       	std	Y+52, r1	; 0x34
    1a8c:	02 c0       	rjmp	.+4      	; 0x1a92 <lcdWriteZahl+0x80>
    1a8e:	21 e0       	ldi	r18, 0x01	; 1
    1a90:	2c ab       	std	Y+52, r18	; 0x34
    1a92:	61 2c       	mov	r6, r1
    1a94:	7b aa       	std	Y+51, r7	; 0x33
    1a96:	76 2c       	mov	r7, r6
    1a98:	6a a8       	ldd	r6, Y+50	; 0x32
    1a9a:	33 c0       	rjmp	.+102    	; 0x1b02 <lcdWriteZahl+0xf0>
    1a9c:	83 e1       	ldi	r24, 0x13	; 19
    1a9e:	90 e0       	ldi	r25, 0x00	; 0
    1aa0:	4c 01       	movw	r8, r24
    1aa2:	87 18       	sub	r8, r7
    1aa4:	91 08       	sbc	r9, r1
    1aa6:	0f 2e       	mov	r0, r31
    1aa8:	fa e0       	ldi	r31, 0x0A	; 10
    1aaa:	af 2e       	mov	r10, r31
    1aac:	f0 2d       	mov	r31, r0
    1aae:	b1 2c       	mov	r11, r1
    1ab0:	c1 2c       	mov	r12, r1
    1ab2:	d1 2c       	mov	r13, r1
    1ab4:	e1 2c       	mov	r14, r1
    1ab6:	f1 2c       	mov	r15, r1
    1ab8:	00 e0       	ldi	r16, 0x00	; 0
    1aba:	10 e0       	ldi	r17, 0x00	; 0
    1abc:	2b a5       	ldd	r18, Y+43	; 0x2b
    1abe:	3c a5       	ldd	r19, Y+44	; 0x2c
    1ac0:	45 2d       	mov	r20, r5
    1ac2:	54 2d       	mov	r21, r4
    1ac4:	6d a5       	ldd	r22, Y+45	; 0x2d
    1ac6:	76 2d       	mov	r23, r6
    1ac8:	83 2d       	mov	r24, r3
    1aca:	92 2d       	mov	r25, r2
    1acc:	95 d2       	rcall	.+1322   	; 0x1ff8 <__umoddi3>
    1ace:	e1 e0       	ldi	r30, 0x01	; 1
    1ad0:	f0 e0       	ldi	r31, 0x00	; 0
    1ad2:	ec 0f       	add	r30, r28
    1ad4:	fd 1f       	adc	r31, r29
    1ad6:	e8 0d       	add	r30, r8
    1ad8:	f9 1d       	adc	r31, r9
    1ada:	20 5d       	subi	r18, 0xD0	; 208
    1adc:	20 83       	st	Z, r18
    1ade:	2b a5       	ldd	r18, Y+43	; 0x2b
    1ae0:	3c a5       	ldd	r19, Y+44	; 0x2c
    1ae2:	45 2d       	mov	r20, r5
    1ae4:	54 2d       	mov	r21, r4
    1ae6:	6d a5       	ldd	r22, Y+45	; 0x2d
    1ae8:	76 2d       	mov	r23, r6
    1aea:	83 2d       	mov	r24, r3
    1aec:	92 2d       	mov	r25, r2
    1aee:	86 d2       	rcall	.+1292   	; 0x1ffc <__udivdi3>
    1af0:	2b a7       	std	Y+43, r18	; 0x2b
    1af2:	3c a7       	std	Y+44, r19	; 0x2c
    1af4:	54 2e       	mov	r5, r20
    1af6:	45 2e       	mov	r4, r21
    1af8:	6d a7       	std	Y+45, r22	; 0x2d
    1afa:	67 2e       	mov	r6, r23
    1afc:	38 2e       	mov	r3, r24
    1afe:	29 2e       	mov	r2, r25
    1b00:	73 94       	inc	r7
    1b02:	83 e1       	ldi	r24, 0x13	; 19
    1b04:	87 15       	cp	r24, r7
    1b06:	50 f6       	brcc	.-108    	; 0x1a9c <lcdWriteZahl+0x8a>
    1b08:	7b a8       	ldd	r7, Y+51	; 0x33
    1b0a:	94 e1       	ldi	r25, 0x14	; 20
    1b0c:	2f a5       	ldd	r18, Y+47	; 0x2f
    1b0e:	92 1b       	sub	r25, r18
    1b10:	80 e0       	ldi	r24, 0x00	; 0
    1b12:	20 e0       	ldi	r18, 0x00	; 0
    1b14:	11 c0       	rjmp	.+34     	; 0x1b38 <lcdWriteZahl+0x126>
    1b16:	e1 e0       	ldi	r30, 0x01	; 1
    1b18:	f0 e0       	ldi	r31, 0x00	; 0
    1b1a:	ec 0f       	add	r30, r28
    1b1c:	fd 1f       	adc	r31, r29
    1b1e:	e9 0f       	add	r30, r25
    1b20:	f1 1d       	adc	r31, r1
    1b22:	30 81       	ld	r19, Z
    1b24:	e5 e1       	ldi	r30, 0x15	; 21
    1b26:	f0 e0       	ldi	r31, 0x00	; 0
    1b28:	ec 0f       	add	r30, r28
    1b2a:	fd 1f       	adc	r31, r29
    1b2c:	e8 0f       	add	r30, r24
    1b2e:	f1 1d       	adc	r31, r1
    1b30:	30 83       	st	Z, r19
    1b32:	8f 5f       	subi	r24, 0xFF	; 255
    1b34:	9f 5f       	subi	r25, 0xFF	; 255
    1b36:	2f 5f       	subi	r18, 0xFF	; 255
    1b38:	27 15       	cp	r18, r7
    1b3a:	68 f3       	brcs	.-38     	; 0x1b16 <lcdWriteZahl+0x104>
    1b3c:	2c a9       	ldd	r18, Y+52	; 0x34
    1b3e:	22 23       	and	r18, r18
    1b40:	49 f0       	breq	.+18     	; 0x1b54 <lcdWriteZahl+0x142>
    1b42:	e5 e1       	ldi	r30, 0x15	; 21
    1b44:	f0 e0       	ldi	r31, 0x00	; 0
    1b46:	ec 0f       	add	r30, r28
    1b48:	fd 1f       	adc	r31, r29
    1b4a:	e8 0f       	add	r30, r24
    1b4c:	f1 1d       	adc	r31, r1
    1b4e:	2e e2       	ldi	r18, 0x2E	; 46
    1b50:	20 83       	st	Z, r18
    1b52:	8f 5f       	subi	r24, 0xFF	; 255
    1b54:	20 e0       	ldi	r18, 0x00	; 0
    1b56:	4e a5       	ldd	r20, Y+46	; 0x2e
    1b58:	11 c0       	rjmp	.+34     	; 0x1b7c <lcdWriteZahl+0x16a>
    1b5a:	e1 e0       	ldi	r30, 0x01	; 1
    1b5c:	f0 e0       	ldi	r31, 0x00	; 0
    1b5e:	ec 0f       	add	r30, r28
    1b60:	fd 1f       	adc	r31, r29
    1b62:	e9 0f       	add	r30, r25
    1b64:	f1 1d       	adc	r31, r1
    1b66:	30 81       	ld	r19, Z
    1b68:	e5 e1       	ldi	r30, 0x15	; 21
    1b6a:	f0 e0       	ldi	r31, 0x00	; 0
    1b6c:	ec 0f       	add	r30, r28
    1b6e:	fd 1f       	adc	r31, r29
    1b70:	e8 0f       	add	r30, r24
    1b72:	f1 1d       	adc	r31, r1
    1b74:	30 83       	st	Z, r19
    1b76:	8f 5f       	subi	r24, 0xFF	; 255
    1b78:	9f 5f       	subi	r25, 0xFF	; 255
    1b7a:	2f 5f       	subi	r18, 0xFF	; 255
    1b7c:	24 17       	cp	r18, r20
    1b7e:	68 f3       	brcs	.-38     	; 0x1b5a <lcdWriteZahl+0x148>
    1b80:	e5 e1       	ldi	r30, 0x15	; 21
    1b82:	f0 e0       	ldi	r31, 0x00	; 0
    1b84:	ec 0f       	add	r30, r28
    1b86:	fd 1f       	adc	r31, r29
    1b88:	e8 0f       	add	r30, r24
    1b8a:	f1 1d       	adc	r31, r1
    1b8c:	10 82       	st	Z, r1
    1b8e:	40 e0       	ldi	r20, 0x00	; 0
    1b90:	09 c0       	rjmp	.+18     	; 0x1ba4 <lcdWriteZahl+0x192>
    1b92:	4f 5f       	subi	r20, 0xFF	; 255
    1b94:	e5 e1       	ldi	r30, 0x15	; 21
    1b96:	f0 e0       	ldi	r31, 0x00	; 0
    1b98:	ec 0f       	add	r30, r28
    1b9a:	fd 1f       	adc	r31, r29
    1b9c:	e8 0f       	add	r30, r24
    1b9e:	f9 1f       	adc	r31, r25
    1ba0:	20 e2       	ldi	r18, 0x20	; 32
    1ba2:	20 83       	st	Z, r18
    1ba4:	84 2f       	mov	r24, r20
    1ba6:	90 e0       	ldi	r25, 0x00	; 0
    1ba8:	e5 e1       	ldi	r30, 0x15	; 21
    1baa:	f0 e0       	ldi	r31, 0x00	; 0
    1bac:	ec 0f       	add	r30, r28
    1bae:	fd 1f       	adc	r31, r29
    1bb0:	e8 0f       	add	r30, r24
    1bb2:	f9 1f       	adc	r31, r25
    1bb4:	20 81       	ld	r18, Z
    1bb6:	20 33       	cpi	r18, 0x30	; 48
    1bb8:	39 f4       	brne	.+14     	; 0x1bc8 <lcdWriteZahl+0x1b6>
    1bba:	27 2d       	mov	r18, r7
    1bbc:	30 e0       	ldi	r19, 0x00	; 0
    1bbe:	21 50       	subi	r18, 0x01	; 1
    1bc0:	31 09       	sbc	r19, r1
    1bc2:	82 17       	cp	r24, r18
    1bc4:	93 07       	cpc	r25, r19
    1bc6:	2c f3       	brlt	.-54     	; 0x1b92 <lcdWriteZahl+0x180>
    1bc8:	ce 01       	movw	r24, r28
    1bca:	45 96       	adiw	r24, 0x15	; 21
    1bcc:	9f 93       	push	r25
    1bce:	8f 93       	push	r24
    1bd0:	89 a9       	ldd	r24, Y+49	; 0x31
    1bd2:	8f 93       	push	r24
    1bd4:	28 a9       	ldd	r18, Y+48	; 0x30
    1bd6:	2f 93       	push	r18
    1bd8:	e2 de       	rcall	.-572    	; 0x199e <lcdWriteText>
    1bda:	0f 90       	pop	r0
    1bdc:	0f 90       	pop	r0
    1bde:	0f 90       	pop	r0
    1be0:	0f 90       	pop	r0
    1be2:	e4 96       	adiw	r28, 0x34	; 52
    1be4:	0f b6       	in	r0, 0x3f	; 63
    1be6:	f8 94       	cli
    1be8:	de bf       	out	0x3e, r29	; 62
    1bea:	0f be       	out	0x3f, r0	; 63
    1bec:	cd bf       	out	0x3d, r28	; 61
    1bee:	df 91       	pop	r29
    1bf0:	cf 91       	pop	r28
    1bf2:	1f 91       	pop	r17
    1bf4:	0f 91       	pop	r16
    1bf6:	ff 90       	pop	r15
    1bf8:	ef 90       	pop	r14
    1bfa:	df 90       	pop	r13
    1bfc:	cf 90       	pop	r12
    1bfe:	bf 90       	pop	r11
    1c00:	af 90       	pop	r10
    1c02:	9f 90       	pop	r9
    1c04:	8f 90       	pop	r8
    1c06:	7f 90       	pop	r7
    1c08:	6f 90       	pop	r6
    1c0a:	5f 90       	pop	r5
    1c0c:	4f 90       	pop	r4
    1c0e:	3f 90       	pop	r3
    1c10:	2f 90       	pop	r2
    1c12:	08 95       	ret

00001c14 <lcdClear>:
    1c14:	61 e0       	ldi	r22, 0x01	; 1
    1c16:	70 e0       	ldi	r23, 0x00	; 0
    1c18:	83 e4       	ldi	r24, 0x43	; 67
    1c1a:	90 e0       	ldi	r25, 0x00	; 0
    1c1c:	39 de       	rcall	.-910    	; 0x1890 <writeLcdF>
    1c1e:	8f e3       	ldi	r24, 0x3F	; 63
    1c20:	9f e1       	ldi	r25, 0x1F	; 31
    1c22:	01 97       	sbiw	r24, 0x01	; 1
    1c24:	f1 f7       	brne	.-4      	; 0x1c22 <lcdClear+0xe>
    1c26:	00 c0       	rjmp	.+0      	; 0x1c28 <lcdClear+0x14>
    1c28:	00 00       	nop
    1c2a:	87 e7       	ldi	r24, 0x77	; 119
    1c2c:	92 e0       	ldi	r25, 0x02	; 2
    1c2e:	9f 93       	push	r25
    1c30:	8f 93       	push	r24
    1c32:	1f 92       	push	r1
    1c34:	1f 92       	push	r1
    1c36:	b3 de       	rcall	.-666    	; 0x199e <lcdWriteText>
    1c38:	0f 90       	pop	r0
    1c3a:	0f 90       	pop	r0
    1c3c:	0f 90       	pop	r0
    1c3e:	0f 90       	pop	r0
    1c40:	08 95       	ret

00001c42 <initLcd>:
    1c42:	81 e0       	ldi	r24, 0x01	; 1
    1c44:	10 de       	rcall	.-992    	; 0x1866 <lcdSclk>
    1c46:	80 e0       	ldi	r24, 0x00	; 0
    1c48:	04 de       	rcall	.-1016   	; 0x1852 <lcdSid>
    1c4a:	64 e3       	ldi	r22, 0x34	; 52
    1c4c:	70 e0       	ldi	r23, 0x00	; 0
    1c4e:	83 e4       	ldi	r24, 0x43	; 67
    1c50:	90 e0       	ldi	r25, 0x00	; 0
    1c52:	1e de       	rcall	.-964    	; 0x1890 <writeLcdF>
    1c54:	69 e0       	ldi	r22, 0x09	; 9
    1c56:	70 e0       	ldi	r23, 0x00	; 0
    1c58:	83 e4       	ldi	r24, 0x43	; 67
    1c5a:	90 e0       	ldi	r25, 0x00	; 0
    1c5c:	19 de       	rcall	.-974    	; 0x1890 <writeLcdF>
    1c5e:	60 e3       	ldi	r22, 0x30	; 48
    1c60:	70 e0       	ldi	r23, 0x00	; 0
    1c62:	83 e4       	ldi	r24, 0x43	; 67
    1c64:	90 e0       	ldi	r25, 0x00	; 0
    1c66:	14 de       	rcall	.-984    	; 0x1890 <writeLcdF>
    1c68:	6c e0       	ldi	r22, 0x0C	; 12
    1c6a:	70 e0       	ldi	r23, 0x00	; 0
    1c6c:	83 e4       	ldi	r24, 0x43	; 67
    1c6e:	90 e0       	ldi	r25, 0x00	; 0
    1c70:	0f de       	rcall	.-994    	; 0x1890 <writeLcdF>
    1c72:	d0 df       	rcall	.-96     	; 0x1c14 <lcdClear>
    1c74:	67 e0       	ldi	r22, 0x07	; 7
    1c76:	70 e0       	ldi	r23, 0x00	; 0
    1c78:	83 e4       	ldi	r24, 0x43	; 67
    1c7a:	90 e0       	ldi	r25, 0x00	; 0
    1c7c:	09 de       	rcall	.-1006   	; 0x1890 <writeLcdF>
    1c7e:	80 e0       	ldi	r24, 0x00	; 0
    1c80:	fc cd       	rjmp	.-1032   	; 0x187a <lcdLight>
    1c82:	08 95       	ret

00001c84 <initBoard>:
    1c84:	ff 92       	push	r15
    1c86:	0f 93       	push	r16
    1c88:	1f 93       	push	r17
    1c8a:	cf 93       	push	r28
    1c8c:	df 93       	push	r29
    1c8e:	c8 2f       	mov	r28, r24
    1c90:	85 b7       	in	r24, 0x35	; 53
    1c92:	85 bf       	out	0x35, r24	; 53
    1c94:	12 b8       	out	0x02, r1	; 2
    1c96:	8f ef       	ldi	r24, 0xFF	; 255
    1c98:	81 b9       	out	0x01, r24	; 1
    1c9a:	15 b8       	out	0x05, r1	; 5
    1c9c:	84 b9       	out	0x04, r24	; 4
    1c9e:	88 b9       	out	0x08, r24	; 8
    1ca0:	17 b8       	out	0x07, r1	; 7
    1ca2:	8b b9       	out	0x0b, r24	; 11
    1ca4:	1a b8       	out	0x0a, r1	; 10
    1ca6:	8e b9       	out	0x0e, r24	; 14
    1ca8:	1d b8       	out	0x0d, r1	; 13
    1caa:	9e b1       	in	r25, 0x0e	; 14
    1cac:	9b 7f       	andi	r25, 0xFB	; 251
    1cae:	9e b9       	out	0x0e, r25	; 14
    1cb0:	11 ba       	out	0x11, r1	; 17
    1cb2:	10 ba       	out	0x10, r1	; 16
    1cb4:	94 e0       	ldi	r25, 0x04	; 4
    1cb6:	94 bb       	out	0x14, r25	; 20
    1cb8:	93 b3       	in	r25, 0x13	; 19
    1cba:	93 60       	ori	r25, 0x03	; 3
    1cbc:	93 bb       	out	0x13, r25	; 19
    1cbe:	93 b3       	in	r25, 0x13	; 19
    1cc0:	90 62       	ori	r25, 0x20	; 32
    1cc2:	93 bb       	out	0x13, r25	; 19
    1cc4:	97 ec       	ldi	r25, 0xC7	; 199
    1cc6:	90 93 02 01 	sts	0x0102, r25	; 0x800102 <__TEXT_REGION_LENGTH__+0x7c0102>
    1cca:	98 e3       	ldi	r25, 0x38	; 56
    1ccc:	90 93 01 01 	sts	0x0101, r25	; 0x800101 <__TEXT_REGION_LENGTH__+0x7c0101>
    1cd0:	10 92 05 01 	sts	0x0105, r1	; 0x800105 <__TEXT_REGION_LENGTH__+0x7c0105>
    1cd4:	80 93 04 01 	sts	0x0104, r24	; 0x800104 <__TEXT_REGION_LENGTH__+0x7c0104>
    1cd8:	10 92 08 01 	sts	0x0108, r1	; 0x800108 <__TEXT_REGION_LENGTH__+0x7c0108>
    1cdc:	10 92 07 01 	sts	0x0107, r1	; 0x800107 <__TEXT_REGION_LENGTH__+0x7c0107>
    1ce0:	8c e3       	ldi	r24, 0x3C	; 60
    1ce2:	80 93 0b 01 	sts	0x010B, r24	; 0x80010b <__TEXT_REGION_LENGTH__+0x7c010b>
    1ce6:	10 92 0a 01 	sts	0x010A, r1	; 0x80010a <__TEXT_REGION_LENGTH__+0x7c010a>
    1cea:	78 94       	sei
    1cec:	39 dd       	rcall	.-1422   	; 0x1760 <startSystemTimeMs>
    1cee:	a9 df       	rcall	.-174    	; 0x1c42 <initLcd>
    1cf0:	52 dd       	rcall	.-1372   	; 0x1796 <initAdc>
    1cf2:	9b dd       	rcall	.-1226   	; 0x182a <initRgb>
    1cf4:	cc 23       	and	r28, r28
    1cf6:	09 f4       	brne	.+2      	; 0x1cfa <initBoard+0x76>
    1cf8:	a3 c0       	rjmp	.+326    	; 0x1e40 <initBoard+0x1bc>
    1cfa:	8f ef       	ldi	r24, 0xFF	; 255
    1cfc:	be dd       	rcall	.-1156   	; 0x187a <lcdLight>
    1cfe:	40 e0       	ldi	r20, 0x00	; 0
    1d00:	50 e0       	ldi	r21, 0x00	; 0
    1d02:	6f ef       	ldi	r22, 0xFF	; 255
    1d04:	73 e0       	ldi	r23, 0x03	; 3
    1d06:	80 e0       	ldi	r24, 0x00	; 0
    1d08:	90 e0       	ldi	r25, 0x00	; 0
    1d0a:	78 dd       	rcall	.-1296   	; 0x17fc <rgbWrite>
    1d0c:	88 e5       	ldi	r24, 0x58	; 88
    1d0e:	94 e0       	ldi	r25, 0x04	; 4
    1d10:	9f 93       	push	r25
    1d12:	8f 93       	push	r24
    1d14:	1f 92       	push	r1
    1d16:	1f 92       	push	r1
    1d18:	42 de       	rcall	.-892    	; 0x199e <lcdWriteText>
    1d1a:	8d e6       	ldi	r24, 0x6D	; 109
    1d1c:	94 e0       	ldi	r25, 0x04	; 4
    1d1e:	9f 93       	push	r25
    1d20:	8f 93       	push	r24
    1d22:	1f 92       	push	r1
    1d24:	81 e0       	ldi	r24, 0x01	; 1
    1d26:	8f 93       	push	r24
    1d28:	3a de       	rcall	.-908    	; 0x199e <lcdWriteText>
    1d2a:	83 e4       	ldi	r24, 0x43	; 67
    1d2c:	94 e0       	ldi	r25, 0x04	; 4
    1d2e:	9f 93       	push	r25
    1d30:	8f 93       	push	r24
    1d32:	1f 92       	push	r1
    1d34:	82 e0       	ldi	r24, 0x02	; 2
    1d36:	8f 93       	push	r24
    1d38:	32 de       	rcall	.-924    	; 0x199e <lcdWriteText>
    1d3a:	82 e8       	ldi	r24, 0x82	; 130
    1d3c:	94 e0       	ldi	r25, 0x04	; 4
    1d3e:	9f 93       	push	r25
    1d40:	8f 93       	push	r24
    1d42:	1f 92       	push	r1
    1d44:	83 e0       	ldi	r24, 0x03	; 3
    1d46:	8f 93       	push	r24
    1d48:	2a de       	rcall	.-940    	; 0x199e <lcdWriteText>
    1d4a:	8d b7       	in	r24, 0x3d	; 61
    1d4c:	9e b7       	in	r25, 0x3e	; 62
    1d4e:	40 96       	adiw	r24, 0x10	; 16
    1d50:	0f b6       	in	r0, 0x3f	; 63
    1d52:	f8 94       	cli
    1d54:	9e bf       	out	0x3e, r25	; 62
    1d56:	0f be       	out	0x3f, r0	; 63
    1d58:	8d bf       	out	0x3d, r24	; 61
    1d5a:	ff 24       	eor	r15, r15
    1d5c:	f3 94       	inc	r15
    1d5e:	c0 e0       	ldi	r28, 0x00	; 0
    1d60:	10 e0       	ldi	r17, 0x00	; 0
    1d62:	01 e0       	ldi	r16, 0x01	; 1
    1d64:	d0 e0       	ldi	r29, 0x00	; 0
    1d66:	00 23       	and	r16, r16
    1d68:	51 f0       	breq	.+20     	; 0x1d7e <initBoard+0xfa>
    1d6a:	80 e0       	ldi	r24, 0x00	; 0
    1d6c:	90 e8       	ldi	r25, 0x80	; 128
    1d6e:	0d 2e       	mov	r0, r29
    1d70:	02 c0       	rjmp	.+4      	; 0x1d76 <initBoard+0xf2>
    1d72:	96 95       	lsr	r25
    1d74:	87 95       	ror	r24
    1d76:	0a 94       	dec	r0
    1d78:	e2 f7       	brpl	.-8      	; 0x1d72 <initBoard+0xee>
    1d7a:	ec dc       	rcall	.-1576   	; 0x1754 <ledWriteAll>
    1d7c:	09 c0       	rjmp	.+18     	; 0x1d90 <initBoard+0x10c>
    1d7e:	81 e0       	ldi	r24, 0x01	; 1
    1d80:	90 e0       	ldi	r25, 0x00	; 0
    1d82:	0d 2e       	mov	r0, r29
    1d84:	02 c0       	rjmp	.+4      	; 0x1d8a <initBoard+0x106>
    1d86:	88 0f       	add	r24, r24
    1d88:	99 1f       	adc	r25, r25
    1d8a:	0a 94       	dec	r0
    1d8c:	e2 f7       	brpl	.-8      	; 0x1d86 <initBoard+0x102>
    1d8e:	e2 dc       	rcall	.-1596   	; 0x1754 <ledWriteAll>
    1d90:	df 5f       	subi	r29, 0xFF	; 255
    1d92:	d1 31       	cpi	r29, 0x11	; 17
    1d94:	28 f0       	brcs	.+10     	; 0x1da0 <initBoard+0x11c>
    1d96:	81 e0       	ldi	r24, 0x01	; 1
    1d98:	01 11       	cpse	r16, r1
    1d9a:	80 e0       	ldi	r24, 0x00	; 0
    1d9c:	08 2f       	mov	r16, r24
    1d9e:	d0 e0       	ldi	r29, 0x00	; 0
    1da0:	ff 20       	and	r15, r15
    1da2:	11 f0       	breq	.+4      	; 0x1da8 <initBoard+0x124>
    1da4:	ce 5f       	subi	r28, 0xFE	; 254
    1da6:	01 c0       	rjmp	.+2      	; 0x1daa <initBoard+0x126>
    1da8:	c2 50       	subi	r28, 0x02	; 2
    1daa:	8c 2f       	mov	r24, r28
    1dac:	66 dd       	rcall	.-1332   	; 0x187a <lcdLight>
    1dae:	ce 3f       	cpi	r28, 0xFE	; 254
    1db0:	09 f4       	brne	.+2      	; 0x1db4 <initBoard+0x130>
    1db2:	f1 2c       	mov	r15, r1
    1db4:	c8 37       	cpi	r28, 0x78	; 120
    1db6:	11 f4       	brne	.+4      	; 0x1dbc <initBoard+0x138>
    1db8:	ff 24       	eor	r15, r15
    1dba:	f3 94       	inc	r15
    1dbc:	11 11       	cpse	r17, r1
    1dbe:	17 c0       	rjmp	.+46     	; 0x1dee <initBoard+0x16a>
    1dc0:	cc dc       	rcall	.-1640   	; 0x175a <buttonReadAllPL>
    1dc2:	83 7c       	andi	r24, 0xC3	; 195
    1dc4:	a1 f0       	breq	.+40     	; 0x1dee <initBoard+0x16a>
    1dc6:	40 e0       	ldi	r20, 0x00	; 0
    1dc8:	50 e0       	ldi	r21, 0x00	; 0
    1dca:	66 e2       	ldi	r22, 0x26	; 38
    1dcc:	72 e0       	ldi	r23, 0x02	; 2
    1dce:	8f ef       	ldi	r24, 0xFF	; 255
    1dd0:	93 e0       	ldi	r25, 0x03	; 3
    1dd2:	14 dd       	rcall	.-1496   	; 0x17fc <rgbWrite>
    1dd4:	87 e9       	ldi	r24, 0x97	; 151
    1dd6:	94 e0       	ldi	r25, 0x04	; 4
    1dd8:	9f 93       	push	r25
    1dda:	8f 93       	push	r24
    1ddc:	1f 92       	push	r1
    1dde:	83 e0       	ldi	r24, 0x03	; 3
    1de0:	8f 93       	push	r24
    1de2:	dd dd       	rcall	.-1094   	; 0x199e <lcdWriteText>
    1de4:	0f 90       	pop	r0
    1de6:	0f 90       	pop	r0
    1de8:	0f 90       	pop	r0
    1dea:	0f 90       	pop	r0
    1dec:	11 e0       	ldi	r17, 0x01	; 1
    1dee:	11 23       	and	r17, r17
    1df0:	19 f0       	breq	.+6      	; 0x1df8 <initBoard+0x174>
    1df2:	b3 dc       	rcall	.-1690   	; 0x175a <buttonReadAllPL>
    1df4:	83 7c       	andi	r24, 0xC3	; 195
    1df6:	39 f0       	breq	.+14     	; 0x1e06 <initBoard+0x182>
    1df8:	8f ef       	ldi	r24, 0xFF	; 255
    1dfa:	9c e7       	ldi	r25, 0x7C	; 124
    1dfc:	01 97       	sbiw	r24, 0x01	; 1
    1dfe:	f1 f7       	brne	.-4      	; 0x1dfc <initBoard+0x178>
    1e00:	00 c0       	rjmp	.+0      	; 0x1e02 <initBoard+0x17e>
    1e02:	00 00       	nop
    1e04:	b0 cf       	rjmp	.-160    	; 0x1d66 <initBoard+0xe2>
    1e06:	06 df       	rcall	.-500    	; 0x1c14 <lcdClear>
    1e08:	80 e0       	ldi	r24, 0x00	; 0
    1e0a:	37 dd       	rcall	.-1426   	; 0x187a <lcdLight>
    1e0c:	80 e0       	ldi	r24, 0x00	; 0
    1e0e:	90 e0       	ldi	r25, 0x00	; 0
    1e10:	a1 dc       	rcall	.-1726   	; 0x1754 <ledWriteAll>
    1e12:	40 e0       	ldi	r20, 0x00	; 0
    1e14:	50 e0       	ldi	r21, 0x00	; 0
    1e16:	60 e0       	ldi	r22, 0x00	; 0
    1e18:	70 e0       	ldi	r23, 0x00	; 0
    1e1a:	80 e0       	ldi	r24, 0x00	; 0
    1e1c:	90 e0       	ldi	r25, 0x00	; 0
    1e1e:	ee dc       	rcall	.-1572   	; 0x17fc <rgbWrite>
    1e20:	10 92 b1 04 	sts	0x04B1, r1	; 0x8004b1 <systemTimeMs>
    1e24:	10 92 b2 04 	sts	0x04B2, r1	; 0x8004b2 <systemTimeMs+0x1>
    1e28:	10 92 b3 04 	sts	0x04B3, r1	; 0x8004b3 <systemTimeMs+0x2>
    1e2c:	10 92 b4 04 	sts	0x04B4, r1	; 0x8004b4 <systemTimeMs+0x3>
    1e30:	10 92 b5 04 	sts	0x04B5, r1	; 0x8004b5 <systemTimeMs+0x4>
    1e34:	10 92 b6 04 	sts	0x04B6, r1	; 0x8004b6 <systemTimeMs+0x5>
    1e38:	10 92 b7 04 	sts	0x04B7, r1	; 0x8004b7 <systemTimeMs+0x6>
    1e3c:	10 92 b8 04 	sts	0x04B8, r1	; 0x8004b8 <systemTimeMs+0x7>
    1e40:	df 91       	pop	r29
    1e42:	cf 91       	pop	r28
    1e44:	1f 91       	pop	r17
    1e46:	0f 91       	pop	r16
    1e48:	ff 90       	pop	r15
    1e4a:	08 95       	ret

00001e4c <matrixWriteNextLine>:




void matrixWriteNextLine(void)
{
    1e4c:	cf 93       	push	r28
    1e4e:	df 93       	push	r29
    1e50:	cd b7       	in	r28, 0x3d	; 61
    1e52:	de b7       	in	r29, 0x3e	; 62
    1e54:	28 97       	sbiw	r28, 0x08	; 8
    1e56:	0f b6       	in	r0, 0x3f	; 63
    1e58:	f8 94       	cli
    1e5a:	de bf       	out	0x3e, r29	; 62
    1e5c:	0f be       	out	0x3f, r0	; 63
    1e5e:	cd bf       	out	0x3d, r28	; 61
    const  uint8_t Bit_Muster_Tab[8] = {1,2,4,8,16,32,64,128};
    1e60:	88 e0       	ldi	r24, 0x08	; 8
    1e62:	e6 e3       	ldi	r30, 0x36	; 54
    1e64:	f2 e0       	ldi	r31, 0x02	; 2
    1e66:	de 01       	movw	r26, r28
    1e68:	11 96       	adiw	r26, 0x01	; 1
    1e6a:	01 90       	ld	r0, Z+
    1e6c:	0d 92       	st	X+, r0
    1e6e:	8a 95       	dec	r24
    1e70:	e1 f7       	brne	.-8      	; 0x1e6a <matrixWriteNextLine+0x1e>
    static uint16_t Zeilen_Nr, Bit_Muster;
    uint8_t i;
    
    STROBE_0;                             // Daten des Scheiberegisters nicht ins Latch schreiben
    1e72:	e5 e0       	ldi	r30, 0x05	; 5
    1e74:	f1 e0       	ldi	r31, 0x01	; 1
    1e76:	80 81       	ld	r24, Z
    1e78:	8f 7b       	andi	r24, 0xBF	; 191
    1e7a:	80 83       	st	Z, r24

    Bit_Muster = Bit_Muster_Tab[Zeilen_Nr]; // Bitmuster aus Tabelle holen, um mit Daten in matrix[] zu vergleichen.
    1e7c:	e0 91 ae 04 	lds	r30, 0x04AE	; 0x8004ae <Zeilen_Nr.2751>
    1e80:	f0 91 af 04 	lds	r31, 0x04AF	; 0x8004af <Zeilen_Nr.2751+0x1>
    1e84:	81 e0       	ldi	r24, 0x01	; 1
    1e86:	90 e0       	ldi	r25, 0x00	; 0
    1e88:	8c 0f       	add	r24, r28
    1e8a:	9d 1f       	adc	r25, r29
    1e8c:	e8 0f       	add	r30, r24
    1e8e:	f9 1f       	adc	r31, r25
    1e90:	80 81       	ld	r24, Z
    1e92:	90 e0       	ldi	r25, 0x00	; 0
    1e94:	90 93 ad 04 	sts	0x04AD, r25	; 0x8004ad <__data_end+0x1>
    1e98:	80 93 ac 04 	sts	0x04AC, r24	; 0x8004ac <__data_end>
    
    // Alle Bits seriell ins Schieberegister hineinschreiben
    for(i=0; i<Anzahl_Spalten; i++)         // Alle Spalten durchgehen und überpüfen, ob Bit gesetzt ist
    1e9c:	80 e0       	ldi	r24, 0x00	; 0
    1e9e:	26 c0       	rjmp	.+76     	; 0x1eec <matrixWriteNextLine+0xa0>
    {                                       // Vergleicht Bit-Muster der aktuellen Zeile mit Daten in matrix[]
        if((matrix[Anzahl_Spalten-1- i] & Bit_Muster) != 0)     // Ist in matrix[] das entsprechende Bit gesetzt?
    1ea0:	e7 e3       	ldi	r30, 0x37	; 55
    1ea2:	f0 e0       	ldi	r31, 0x00	; 0
    1ea4:	e8 1b       	sub	r30, r24
    1ea6:	f1 09       	sbc	r31, r1
    1ea8:	ee 0f       	add	r30, r30
    1eaa:	ff 1f       	adc	r31, r31
    1eac:	e6 54       	subi	r30, 0x46	; 70
    1eae:	fb 4f       	sbci	r31, 0xFB	; 251
    1eb0:	40 81       	ld	r20, Z
    1eb2:	51 81       	ldd	r21, Z+1	; 0x01
    1eb4:	20 91 ac 04 	lds	r18, 0x04AC	; 0x8004ac <__data_end>
    1eb8:	30 91 ad 04 	lds	r19, 0x04AD	; 0x8004ad <__data_end+0x1>
    1ebc:	24 23       	and	r18, r20
    1ebe:	35 23       	and	r19, r21
    1ec0:	23 2b       	or	r18, r19
    1ec2:	31 f0       	breq	.+12     	; 0x1ed0 <matrixWriteNextLine+0x84>
        { DATA_Modul_1_ON;                    //   JA:   ==> Datenbit "1" ins Schieberegister schreiben
    1ec4:	e5 e0       	ldi	r30, 0x05	; 5
    1ec6:	f1 e0       	ldi	r31, 0x01	; 1
    1ec8:	90 81       	ld	r25, Z
    1eca:	90 62       	ori	r25, 0x20	; 32
    1ecc:	90 83       	st	Z, r25
    1ece:	05 c0       	rjmp	.+10     	; 0x1eda <matrixWriteNextLine+0x8e>
        }
        else
        { DATA_Modul_1_OFF;                   //   NEIN: ==> Datenbit "0" ins Schieberegister schreiben
    1ed0:	e5 e0       	ldi	r30, 0x05	; 5
    1ed2:	f1 e0       	ldi	r31, 0x01	; 1
    1ed4:	90 81       	ld	r25, Z
    1ed6:	9f 7d       	andi	r25, 0xDF	; 223
    1ed8:	90 83       	st	Z, r25
        }
        CLOCK_1;
    1eda:	e5 e0       	ldi	r30, 0x05	; 5
    1edc:	f1 e0       	ldi	r31, 0x01	; 1
    1ede:	90 81       	ld	r25, Z
    1ee0:	90 61       	ori	r25, 0x10	; 16
    1ee2:	90 83       	st	Z, r25
        CLOCK_0;                            // Datenbit wird bei der negativen Flanke des Clock-Signals übernommen
    1ee4:	90 81       	ld	r25, Z
    1ee6:	9f 7e       	andi	r25, 0xEF	; 239
    1ee8:	90 83       	st	Z, r25
    STROBE_0;                             // Daten des Scheiberegisters nicht ins Latch schreiben

    Bit_Muster = Bit_Muster_Tab[Zeilen_Nr]; // Bitmuster aus Tabelle holen, um mit Daten in matrix[] zu vergleichen.
    
    // Alle Bits seriell ins Schieberegister hineinschreiben
    for(i=0; i<Anzahl_Spalten; i++)         // Alle Spalten durchgehen und überpüfen, ob Bit gesetzt ist
    1eea:	8f 5f       	subi	r24, 0xFF	; 255
    1eec:	88 33       	cpi	r24, 0x38	; 56
    1eee:	c0 f2       	brcs	.-80     	; 0x1ea0 <matrixWriteNextLine+0x54>
        }
        CLOCK_1;
        CLOCK_0;                            // Datenbit wird bei der negativen Flanke des Clock-Signals übernommen
    }
    
    ENABLE_0;                                // +5V aller Zeilen abschalten
    1ef0:	e5 e0       	ldi	r30, 0x05	; 5
    1ef2:	f1 e0       	ldi	r31, 0x01	; 1
    1ef4:	80 81       	ld	r24, Z
    1ef6:	87 7f       	andi	r24, 0xF7	; 247
    1ef8:	80 83       	st	Z, r24
    PORTJ &= ~0x07;
    1efa:	80 81       	ld	r24, Z
    1efc:	88 7f       	andi	r24, 0xF8	; 248
    1efe:	80 83       	st	Z, r24
    PORTJ |= Zeilen_Nr;                     // gewünschte Zeile einstellen
    1f00:	90 81       	ld	r25, Z
    1f02:	80 91 ae 04 	lds	r24, 0x04AE	; 0x8004ae <Zeilen_Nr.2751>
    1f06:	89 2b       	or	r24, r25
    1f08:	80 83       	st	Z, r24
    STROBE_1;                             // Daten ins Latch schreiben
    1f0a:	80 81       	ld	r24, Z
    1f0c:	80 64       	ori	r24, 0x40	; 64
    1f0e:	80 83       	st	Z, r24
    ENABLE_1;                             // +5V Speisung der eingestellten Zeile einschalten
    1f10:	80 81       	ld	r24, Z
    1f12:	88 60       	ori	r24, 0x08	; 8
    1f14:	80 83       	st	Z, r24

    // Die Zeilen werden nacheinander eingeschaltet --> zyklisch 0,1,2,3,4,5,6,7, 0,1,2,3, ...
    if (Zeilen_Nr < 7)
    1f16:	80 91 ae 04 	lds	r24, 0x04AE	; 0x8004ae <Zeilen_Nr.2751>
    1f1a:	90 91 af 04 	lds	r25, 0x04AF	; 0x8004af <Zeilen_Nr.2751+0x1>
    1f1e:	87 30       	cpi	r24, 0x07	; 7
    1f20:	91 05       	cpc	r25, r1
    1f22:	30 f4       	brcc	.+12     	; 0x1f30 <matrixWriteNextLine+0xe4>
    {
        Zeilen_Nr++;
    1f24:	01 96       	adiw	r24, 0x01	; 1
    1f26:	90 93 af 04 	sts	0x04AF, r25	; 0x8004af <Zeilen_Nr.2751+0x1>
    1f2a:	80 93 ae 04 	sts	0x04AE, r24	; 0x8004ae <Zeilen_Nr.2751>
    1f2e:	07 c0       	rjmp	.+14     	; 0x1f3e <matrixWriteNextLine+0xf2>
    }
    else
    {
        Zeilen_Nr = 0;
    1f30:	10 92 af 04 	sts	0x04AF, r1	; 0x8004af <Zeilen_Nr.2751+0x1>
    1f34:	10 92 ae 04 	sts	0x04AE, r1	; 0x8004ae <Zeilen_Nr.2751>
        writeTextFinished = 1;
    1f38:	81 e0       	ldi	r24, 0x01	; 1
    1f3a:	80 93 b0 04 	sts	0x04B0, r24	; 0x8004b0 <writeTextFinished>
    }
    
    1f3e:	28 96       	adiw	r28, 0x08	; 8
    1f40:	0f b6       	in	r0, 0x3f	; 63
    1f42:	f8 94       	cli
    1f44:	de bf       	out	0x3e, r29	; 62
    1f46:	0f be       	out	0x3f, r0	; 63
    1f48:	cd bf       	out	0x3d, r28	; 61
    1f4a:	df 91       	pop	r29
    1f4c:	cf 91       	pop	r28
    1f4e:	08 95       	ret

00001f50 <__vector_23>:
//--------------------------------------------------------------------------------------------
// Timer 0 Overflow Interrupt ->  Wird alle 1ms aufgerufen
//--------------------------------------------------------------------------------------------

ISR(TIMER0_OVF_vect)
{
    1f50:	1f 92       	push	r1
    1f52:	0f 92       	push	r0
    1f54:	0f b6       	in	r0, 0x3f	; 63
    1f56:	0f 92       	push	r0
    1f58:	11 24       	eor	r1, r1
    1f5a:	0b b6       	in	r0, 0x3b	; 59
    1f5c:	0f 92       	push	r0
    1f5e:	2f 93       	push	r18
    1f60:	3f 93       	push	r19
    1f62:	4f 93       	push	r20
    1f64:	5f 93       	push	r21
    1f66:	6f 93       	push	r22
    1f68:	7f 93       	push	r23
    1f6a:	8f 93       	push	r24
    1f6c:	9f 93       	push	r25
    1f6e:	af 93       	push	r26
    1f70:	bf 93       	push	r27
    1f72:	ef 93       	push	r30
    1f74:	ff 93       	push	r31
    systemTimeMs += 1;
    1f76:	20 91 b1 04 	lds	r18, 0x04B1	; 0x8004b1 <systemTimeMs>
    1f7a:	30 91 b2 04 	lds	r19, 0x04B2	; 0x8004b2 <systemTimeMs+0x1>
    1f7e:	40 91 b3 04 	lds	r20, 0x04B3	; 0x8004b3 <systemTimeMs+0x2>
    1f82:	50 91 b4 04 	lds	r21, 0x04B4	; 0x8004b4 <systemTimeMs+0x3>
    1f86:	60 91 b5 04 	lds	r22, 0x04B5	; 0x8004b5 <systemTimeMs+0x4>
    1f8a:	70 91 b6 04 	lds	r23, 0x04B6	; 0x8004b6 <systemTimeMs+0x5>
    1f8e:	80 91 b7 04 	lds	r24, 0x04B7	; 0x8004b7 <systemTimeMs+0x6>
    1f92:	90 91 b8 04 	lds	r25, 0x04B8	; 0x8004b8 <systemTimeMs+0x7>
    1f96:	a1 e0       	ldi	r26, 0x01	; 1
    1f98:	96 d0       	rcall	.+300    	; 0x20c6 <__adddi3_s8>
    1f9a:	20 93 b1 04 	sts	0x04B1, r18	; 0x8004b1 <systemTimeMs>
    1f9e:	30 93 b2 04 	sts	0x04B2, r19	; 0x8004b2 <systemTimeMs+0x1>
    1fa2:	40 93 b3 04 	sts	0x04B3, r20	; 0x8004b3 <systemTimeMs+0x2>
    1fa6:	50 93 b4 04 	sts	0x04B4, r21	; 0x8004b4 <systemTimeMs+0x3>
    1faa:	60 93 b5 04 	sts	0x04B5, r22	; 0x8004b5 <systemTimeMs+0x4>
    1fae:	70 93 b6 04 	sts	0x04B6, r23	; 0x8004b6 <systemTimeMs+0x5>
    1fb2:	80 93 b7 04 	sts	0x04B7, r24	; 0x8004b7 <systemTimeMs+0x6>
    1fb6:	90 93 b8 04 	sts	0x04B8, r25	; 0x8004b8 <systemTimeMs+0x7>

    if(matrixRunning)matrixWriteNextLine();
    1fba:	80 91 b9 04 	lds	r24, 0x04B9	; 0x8004b9 <matrixRunning>
    1fbe:	81 11       	cpse	r24, r1
    1fc0:	45 df       	rcall	.-374    	; 0x1e4c <matrixWriteNextLine>
}
    1fc2:	ff 91       	pop	r31
    1fc4:	ef 91       	pop	r30
    1fc6:	bf 91       	pop	r27
    1fc8:	af 91       	pop	r26
    1fca:	9f 91       	pop	r25
    1fcc:	8f 91       	pop	r24
    1fce:	7f 91       	pop	r23
    1fd0:	6f 91       	pop	r22
    1fd2:	5f 91       	pop	r21
    1fd4:	4f 91       	pop	r20
    1fd6:	3f 91       	pop	r19
    1fd8:	2f 91       	pop	r18
    1fda:	0f 90       	pop	r0
    1fdc:	0b be       	out	0x3b, r0	; 59
    1fde:	0f 90       	pop	r0
    1fe0:	0f be       	out	0x3f, r0	; 63
    1fe2:	0f 90       	pop	r0
    1fe4:	1f 90       	pop	r1
    1fe6:	18 95       	reti

00001fe8 <__tablejump2__>:
    1fe8:	ee 0f       	add	r30, r30
    1fea:	ff 1f       	adc	r31, r31
    1fec:	88 1f       	adc	r24, r24
    1fee:	8b bf       	out	0x3b, r24	; 59
    1ff0:	07 90       	elpm	r0, Z+
    1ff2:	f6 91       	elpm	r31, Z
    1ff4:	e0 2d       	mov	r30, r0
    1ff6:	19 94       	eijmp

00001ff8 <__umoddi3>:
    1ff8:	68 94       	set
    1ffa:	01 c0       	rjmp	.+2      	; 0x1ffe <__udivdi3_umoddi3>

00001ffc <__udivdi3>:
    1ffc:	e8 94       	clt

00001ffe <__udivdi3_umoddi3>:
    1ffe:	8f 92       	push	r8
    2000:	9f 92       	push	r9
    2002:	cf 93       	push	r28
    2004:	df 93       	push	r29
    2006:	05 d0       	rcall	.+10     	; 0x2012 <__udivmod64>
    2008:	df 91       	pop	r29
    200a:	cf 91       	pop	r28
    200c:	9f 90       	pop	r9
    200e:	8f 90       	pop	r8
    2010:	08 95       	ret

00002012 <__udivmod64>:
    2012:	88 24       	eor	r8, r8
    2014:	99 24       	eor	r9, r9
    2016:	f4 01       	movw	r30, r8
    2018:	e4 01       	movw	r28, r8
    201a:	b0 e4       	ldi	r27, 0x40	; 64
    201c:	9f 93       	push	r25
    201e:	aa 27       	eor	r26, r26
    2020:	9a 15       	cp	r25, r10
    2022:	8b 04       	cpc	r8, r11
    2024:	9c 04       	cpc	r9, r12
    2026:	ed 05       	cpc	r30, r13
    2028:	fe 05       	cpc	r31, r14
    202a:	cf 05       	cpc	r28, r15
    202c:	d0 07       	cpc	r29, r16
    202e:	a1 07       	cpc	r26, r17
    2030:	98 f4       	brcc	.+38     	; 0x2058 <__udivmod64+0x46>
    2032:	ad 2f       	mov	r26, r29
    2034:	dc 2f       	mov	r29, r28
    2036:	cf 2f       	mov	r28, r31
    2038:	fe 2f       	mov	r31, r30
    203a:	e9 2d       	mov	r30, r9
    203c:	98 2c       	mov	r9, r8
    203e:	89 2e       	mov	r8, r25
    2040:	98 2f       	mov	r25, r24
    2042:	87 2f       	mov	r24, r23
    2044:	76 2f       	mov	r23, r22
    2046:	65 2f       	mov	r22, r21
    2048:	54 2f       	mov	r21, r20
    204a:	43 2f       	mov	r20, r19
    204c:	32 2f       	mov	r19, r18
    204e:	22 27       	eor	r18, r18
    2050:	b8 50       	subi	r27, 0x08	; 8
    2052:	31 f7       	brne	.-52     	; 0x2020 <__udivmod64+0xe>
    2054:	bf 91       	pop	r27
    2056:	27 c0       	rjmp	.+78     	; 0x20a6 <__udivmod64+0x94>
    2058:	1b 2e       	mov	r1, r27
    205a:	bf 91       	pop	r27
    205c:	bb 27       	eor	r27, r27
    205e:	22 0f       	add	r18, r18
    2060:	33 1f       	adc	r19, r19
    2062:	44 1f       	adc	r20, r20
    2064:	55 1f       	adc	r21, r21
    2066:	66 1f       	adc	r22, r22
    2068:	77 1f       	adc	r23, r23
    206a:	88 1f       	adc	r24, r24
    206c:	99 1f       	adc	r25, r25
    206e:	88 1c       	adc	r8, r8
    2070:	99 1c       	adc	r9, r9
    2072:	ee 1f       	adc	r30, r30
    2074:	ff 1f       	adc	r31, r31
    2076:	cc 1f       	adc	r28, r28
    2078:	dd 1f       	adc	r29, r29
    207a:	aa 1f       	adc	r26, r26
    207c:	bb 1f       	adc	r27, r27
    207e:	8a 14       	cp	r8, r10
    2080:	9b 04       	cpc	r9, r11
    2082:	ec 05       	cpc	r30, r12
    2084:	fd 05       	cpc	r31, r13
    2086:	ce 05       	cpc	r28, r14
    2088:	df 05       	cpc	r29, r15
    208a:	a0 07       	cpc	r26, r16
    208c:	b1 07       	cpc	r27, r17
    208e:	48 f0       	brcs	.+18     	; 0x20a2 <__udivmod64+0x90>
    2090:	8a 18       	sub	r8, r10
    2092:	9b 08       	sbc	r9, r11
    2094:	ec 09       	sbc	r30, r12
    2096:	fd 09       	sbc	r31, r13
    2098:	ce 09       	sbc	r28, r14
    209a:	df 09       	sbc	r29, r15
    209c:	a0 0b       	sbc	r26, r16
    209e:	b1 0b       	sbc	r27, r17
    20a0:	21 60       	ori	r18, 0x01	; 1
    20a2:	1a 94       	dec	r1
    20a4:	e1 f6       	brne	.-72     	; 0x205e <__udivmod64+0x4c>
    20a6:	2e f4       	brtc	.+10     	; 0x20b2 <__udivmod64+0xa0>
    20a8:	94 01       	movw	r18, r8
    20aa:	af 01       	movw	r20, r30
    20ac:	be 01       	movw	r22, r28
    20ae:	cd 01       	movw	r24, r26
    20b0:	00 0c       	add	r0, r0
    20b2:	08 95       	ret

000020b4 <__adddi3>:
    20b4:	2a 0d       	add	r18, r10
    20b6:	3b 1d       	adc	r19, r11
    20b8:	4c 1d       	adc	r20, r12
    20ba:	5d 1d       	adc	r21, r13
    20bc:	6e 1d       	adc	r22, r14
    20be:	7f 1d       	adc	r23, r15
    20c0:	80 1f       	adc	r24, r16
    20c2:	91 1f       	adc	r25, r17
    20c4:	08 95       	ret

000020c6 <__adddi3_s8>:
    20c6:	00 24       	eor	r0, r0
    20c8:	a7 fd       	sbrc	r26, 7
    20ca:	00 94       	com	r0
    20cc:	2a 0f       	add	r18, r26
    20ce:	30 1d       	adc	r19, r0
    20d0:	40 1d       	adc	r20, r0
    20d2:	50 1d       	adc	r21, r0
    20d4:	60 1d       	adc	r22, r0
    20d6:	70 1d       	adc	r23, r0
    20d8:	80 1d       	adc	r24, r0
    20da:	90 1d       	adc	r25, r0
    20dc:	08 95       	ret

000020de <__subdi3>:
    20de:	2a 19       	sub	r18, r10
    20e0:	3b 09       	sbc	r19, r11
    20e2:	4c 09       	sbc	r20, r12
    20e4:	5d 09       	sbc	r21, r13
    20e6:	6e 09       	sbc	r22, r14
    20e8:	7f 09       	sbc	r23, r15
    20ea:	80 0b       	sbc	r24, r16
    20ec:	91 0b       	sbc	r25, r17
    20ee:	08 95       	ret

000020f0 <__cmpdi2_s8>:
    20f0:	00 24       	eor	r0, r0
    20f2:	a7 fd       	sbrc	r26, 7
    20f4:	00 94       	com	r0
    20f6:	2a 17       	cp	r18, r26
    20f8:	30 05       	cpc	r19, r0
    20fa:	40 05       	cpc	r20, r0
    20fc:	50 05       	cpc	r21, r0
    20fe:	60 05       	cpc	r22, r0
    2100:	70 05       	cpc	r23, r0
    2102:	80 05       	cpc	r24, r0
    2104:	90 05       	cpc	r25, r0
    2106:	08 95       	ret

00002108 <vsnprintf>:
    2108:	0f 93       	push	r16
    210a:	1f 93       	push	r17
    210c:	cf 93       	push	r28
    210e:	df 93       	push	r29
    2110:	cd b7       	in	r28, 0x3d	; 61
    2112:	de b7       	in	r29, 0x3e	; 62
    2114:	2e 97       	sbiw	r28, 0x0e	; 14
    2116:	0f b6       	in	r0, 0x3f	; 63
    2118:	f8 94       	cli
    211a:	de bf       	out	0x3e, r29	; 62
    211c:	0f be       	out	0x3f, r0	; 63
    211e:	cd bf       	out	0x3d, r28	; 61
    2120:	8c 01       	movw	r16, r24
    2122:	fa 01       	movw	r30, r20
    2124:	86 e0       	ldi	r24, 0x06	; 6
    2126:	8c 83       	std	Y+4, r24	; 0x04
    2128:	1a 83       	std	Y+2, r17	; 0x02
    212a:	09 83       	std	Y+1, r16	; 0x01
    212c:	77 ff       	sbrs	r23, 7
    212e:	02 c0       	rjmp	.+4      	; 0x2134 <vsnprintf+0x2c>
    2130:	60 e0       	ldi	r22, 0x00	; 0
    2132:	70 e8       	ldi	r23, 0x80	; 128
    2134:	cb 01       	movw	r24, r22
    2136:	01 97       	sbiw	r24, 0x01	; 1
    2138:	9e 83       	std	Y+6, r25	; 0x06
    213a:	8d 83       	std	Y+5, r24	; 0x05
    213c:	a9 01       	movw	r20, r18
    213e:	bf 01       	movw	r22, r30
    2140:	ce 01       	movw	r24, r28
    2142:	01 96       	adiw	r24, 0x01	; 1
    2144:	19 d0       	rcall	.+50     	; 0x2178 <vfprintf>
    2146:	4d 81       	ldd	r20, Y+5	; 0x05
    2148:	5e 81       	ldd	r21, Y+6	; 0x06
    214a:	57 fd       	sbrc	r21, 7
    214c:	0a c0       	rjmp	.+20     	; 0x2162 <vsnprintf+0x5a>
    214e:	2f 81       	ldd	r18, Y+7	; 0x07
    2150:	38 85       	ldd	r19, Y+8	; 0x08
    2152:	42 17       	cp	r20, r18
    2154:	53 07       	cpc	r21, r19
    2156:	0c f4       	brge	.+2      	; 0x215a <vsnprintf+0x52>
    2158:	9a 01       	movw	r18, r20
    215a:	f8 01       	movw	r30, r16
    215c:	e2 0f       	add	r30, r18
    215e:	f3 1f       	adc	r31, r19
    2160:	10 82       	st	Z, r1
    2162:	2e 96       	adiw	r28, 0x0e	; 14
    2164:	0f b6       	in	r0, 0x3f	; 63
    2166:	f8 94       	cli
    2168:	de bf       	out	0x3e, r29	; 62
    216a:	0f be       	out	0x3f, r0	; 63
    216c:	cd bf       	out	0x3d, r28	; 61
    216e:	df 91       	pop	r29
    2170:	cf 91       	pop	r28
    2172:	1f 91       	pop	r17
    2174:	0f 91       	pop	r16
    2176:	08 95       	ret

00002178 <vfprintf>:
    2178:	2f 92       	push	r2
    217a:	3f 92       	push	r3
    217c:	4f 92       	push	r4
    217e:	5f 92       	push	r5
    2180:	6f 92       	push	r6
    2182:	7f 92       	push	r7
    2184:	8f 92       	push	r8
    2186:	9f 92       	push	r9
    2188:	af 92       	push	r10
    218a:	bf 92       	push	r11
    218c:	cf 92       	push	r12
    218e:	df 92       	push	r13
    2190:	ef 92       	push	r14
    2192:	ff 92       	push	r15
    2194:	0f 93       	push	r16
    2196:	1f 93       	push	r17
    2198:	cf 93       	push	r28
    219a:	df 93       	push	r29
    219c:	cd b7       	in	r28, 0x3d	; 61
    219e:	de b7       	in	r29, 0x3e	; 62
    21a0:	2b 97       	sbiw	r28, 0x0b	; 11
    21a2:	0f b6       	in	r0, 0x3f	; 63
    21a4:	f8 94       	cli
    21a6:	de bf       	out	0x3e, r29	; 62
    21a8:	0f be       	out	0x3f, r0	; 63
    21aa:	cd bf       	out	0x3d, r28	; 61
    21ac:	6c 01       	movw	r12, r24
    21ae:	7b 01       	movw	r14, r22
    21b0:	8a 01       	movw	r16, r20
    21b2:	fc 01       	movw	r30, r24
    21b4:	17 82       	std	Z+7, r1	; 0x07
    21b6:	16 82       	std	Z+6, r1	; 0x06
    21b8:	83 81       	ldd	r24, Z+3	; 0x03
    21ba:	81 ff       	sbrs	r24, 1
    21bc:	bf c1       	rjmp	.+894    	; 0x253c <__stack+0x33d>
    21be:	ce 01       	movw	r24, r28
    21c0:	01 96       	adiw	r24, 0x01	; 1
    21c2:	3c 01       	movw	r6, r24
    21c4:	f6 01       	movw	r30, r12
    21c6:	93 81       	ldd	r25, Z+3	; 0x03
    21c8:	f7 01       	movw	r30, r14
    21ca:	93 fd       	sbrc	r25, 3
    21cc:	85 91       	lpm	r24, Z+
    21ce:	93 ff       	sbrs	r25, 3
    21d0:	81 91       	ld	r24, Z+
    21d2:	7f 01       	movw	r14, r30
    21d4:	88 23       	and	r24, r24
    21d6:	09 f4       	brne	.+2      	; 0x21da <vfprintf+0x62>
    21d8:	ad c1       	rjmp	.+858    	; 0x2534 <__stack+0x335>
    21da:	85 32       	cpi	r24, 0x25	; 37
    21dc:	39 f4       	brne	.+14     	; 0x21ec <vfprintf+0x74>
    21de:	93 fd       	sbrc	r25, 3
    21e0:	85 91       	lpm	r24, Z+
    21e2:	93 ff       	sbrs	r25, 3
    21e4:	81 91       	ld	r24, Z+
    21e6:	7f 01       	movw	r14, r30
    21e8:	85 32       	cpi	r24, 0x25	; 37
    21ea:	21 f4       	brne	.+8      	; 0x21f4 <vfprintf+0x7c>
    21ec:	b6 01       	movw	r22, r12
    21ee:	90 e0       	ldi	r25, 0x00	; 0
    21f0:	d6 d1       	rcall	.+940    	; 0x259e <fputc>
    21f2:	e8 cf       	rjmp	.-48     	; 0x21c4 <vfprintf+0x4c>
    21f4:	91 2c       	mov	r9, r1
    21f6:	21 2c       	mov	r2, r1
    21f8:	31 2c       	mov	r3, r1
    21fa:	ff e1       	ldi	r31, 0x1F	; 31
    21fc:	f3 15       	cp	r31, r3
    21fe:	d8 f0       	brcs	.+54     	; 0x2236 <__stack+0x37>
    2200:	8b 32       	cpi	r24, 0x2B	; 43
    2202:	79 f0       	breq	.+30     	; 0x2222 <__stack+0x23>
    2204:	38 f4       	brcc	.+14     	; 0x2214 <__stack+0x15>
    2206:	80 32       	cpi	r24, 0x20	; 32
    2208:	79 f0       	breq	.+30     	; 0x2228 <__stack+0x29>
    220a:	83 32       	cpi	r24, 0x23	; 35
    220c:	a1 f4       	brne	.+40     	; 0x2236 <__stack+0x37>
    220e:	23 2d       	mov	r18, r3
    2210:	20 61       	ori	r18, 0x10	; 16
    2212:	1d c0       	rjmp	.+58     	; 0x224e <__stack+0x4f>
    2214:	8d 32       	cpi	r24, 0x2D	; 45
    2216:	61 f0       	breq	.+24     	; 0x2230 <__stack+0x31>
    2218:	80 33       	cpi	r24, 0x30	; 48
    221a:	69 f4       	brne	.+26     	; 0x2236 <__stack+0x37>
    221c:	23 2d       	mov	r18, r3
    221e:	21 60       	ori	r18, 0x01	; 1
    2220:	16 c0       	rjmp	.+44     	; 0x224e <__stack+0x4f>
    2222:	83 2d       	mov	r24, r3
    2224:	82 60       	ori	r24, 0x02	; 2
    2226:	38 2e       	mov	r3, r24
    2228:	e3 2d       	mov	r30, r3
    222a:	e4 60       	ori	r30, 0x04	; 4
    222c:	3e 2e       	mov	r3, r30
    222e:	2a c0       	rjmp	.+84     	; 0x2284 <__stack+0x85>
    2230:	f3 2d       	mov	r31, r3
    2232:	f8 60       	ori	r31, 0x08	; 8
    2234:	1d c0       	rjmp	.+58     	; 0x2270 <__stack+0x71>
    2236:	37 fc       	sbrc	r3, 7
    2238:	2d c0       	rjmp	.+90     	; 0x2294 <__stack+0x95>
    223a:	20 ed       	ldi	r18, 0xD0	; 208
    223c:	28 0f       	add	r18, r24
    223e:	2a 30       	cpi	r18, 0x0A	; 10
    2240:	40 f0       	brcs	.+16     	; 0x2252 <__stack+0x53>
    2242:	8e 32       	cpi	r24, 0x2E	; 46
    2244:	b9 f4       	brne	.+46     	; 0x2274 <__stack+0x75>
    2246:	36 fc       	sbrc	r3, 6
    2248:	75 c1       	rjmp	.+746    	; 0x2534 <__stack+0x335>
    224a:	23 2d       	mov	r18, r3
    224c:	20 64       	ori	r18, 0x40	; 64
    224e:	32 2e       	mov	r3, r18
    2250:	19 c0       	rjmp	.+50     	; 0x2284 <__stack+0x85>
    2252:	36 fe       	sbrs	r3, 6
    2254:	06 c0       	rjmp	.+12     	; 0x2262 <__stack+0x63>
    2256:	8a e0       	ldi	r24, 0x0A	; 10
    2258:	98 9e       	mul	r9, r24
    225a:	20 0d       	add	r18, r0
    225c:	11 24       	eor	r1, r1
    225e:	92 2e       	mov	r9, r18
    2260:	11 c0       	rjmp	.+34     	; 0x2284 <__stack+0x85>
    2262:	ea e0       	ldi	r30, 0x0A	; 10
    2264:	2e 9e       	mul	r2, r30
    2266:	20 0d       	add	r18, r0
    2268:	11 24       	eor	r1, r1
    226a:	22 2e       	mov	r2, r18
    226c:	f3 2d       	mov	r31, r3
    226e:	f0 62       	ori	r31, 0x20	; 32
    2270:	3f 2e       	mov	r3, r31
    2272:	08 c0       	rjmp	.+16     	; 0x2284 <__stack+0x85>
    2274:	8c 36       	cpi	r24, 0x6C	; 108
    2276:	21 f4       	brne	.+8      	; 0x2280 <__stack+0x81>
    2278:	83 2d       	mov	r24, r3
    227a:	80 68       	ori	r24, 0x80	; 128
    227c:	38 2e       	mov	r3, r24
    227e:	02 c0       	rjmp	.+4      	; 0x2284 <__stack+0x85>
    2280:	88 36       	cpi	r24, 0x68	; 104
    2282:	41 f4       	brne	.+16     	; 0x2294 <__stack+0x95>
    2284:	f7 01       	movw	r30, r14
    2286:	93 fd       	sbrc	r25, 3
    2288:	85 91       	lpm	r24, Z+
    228a:	93 ff       	sbrs	r25, 3
    228c:	81 91       	ld	r24, Z+
    228e:	7f 01       	movw	r14, r30
    2290:	81 11       	cpse	r24, r1
    2292:	b3 cf       	rjmp	.-154    	; 0x21fa <vfprintf+0x82>
    2294:	98 2f       	mov	r25, r24
    2296:	9f 7d       	andi	r25, 0xDF	; 223
    2298:	95 54       	subi	r25, 0x45	; 69
    229a:	93 30       	cpi	r25, 0x03	; 3
    229c:	28 f4       	brcc	.+10     	; 0x22a8 <__stack+0xa9>
    229e:	0c 5f       	subi	r16, 0xFC	; 252
    22a0:	1f 4f       	sbci	r17, 0xFF	; 255
    22a2:	9f e3       	ldi	r25, 0x3F	; 63
    22a4:	99 83       	std	Y+1, r25	; 0x01
    22a6:	0d c0       	rjmp	.+26     	; 0x22c2 <__stack+0xc3>
    22a8:	83 36       	cpi	r24, 0x63	; 99
    22aa:	31 f0       	breq	.+12     	; 0x22b8 <__stack+0xb9>
    22ac:	83 37       	cpi	r24, 0x73	; 115
    22ae:	71 f0       	breq	.+28     	; 0x22cc <__stack+0xcd>
    22b0:	83 35       	cpi	r24, 0x53	; 83
    22b2:	09 f0       	breq	.+2      	; 0x22b6 <__stack+0xb7>
    22b4:	55 c0       	rjmp	.+170    	; 0x2360 <__stack+0x161>
    22b6:	20 c0       	rjmp	.+64     	; 0x22f8 <__stack+0xf9>
    22b8:	f8 01       	movw	r30, r16
    22ba:	80 81       	ld	r24, Z
    22bc:	89 83       	std	Y+1, r24	; 0x01
    22be:	0e 5f       	subi	r16, 0xFE	; 254
    22c0:	1f 4f       	sbci	r17, 0xFF	; 255
    22c2:	88 24       	eor	r8, r8
    22c4:	83 94       	inc	r8
    22c6:	91 2c       	mov	r9, r1
    22c8:	53 01       	movw	r10, r6
    22ca:	12 c0       	rjmp	.+36     	; 0x22f0 <__stack+0xf1>
    22cc:	28 01       	movw	r4, r16
    22ce:	f2 e0       	ldi	r31, 0x02	; 2
    22d0:	4f 0e       	add	r4, r31
    22d2:	51 1c       	adc	r5, r1
    22d4:	f8 01       	movw	r30, r16
    22d6:	a0 80       	ld	r10, Z
    22d8:	b1 80       	ldd	r11, Z+1	; 0x01
    22da:	36 fe       	sbrs	r3, 6
    22dc:	03 c0       	rjmp	.+6      	; 0x22e4 <__stack+0xe5>
    22de:	69 2d       	mov	r22, r9
    22e0:	70 e0       	ldi	r23, 0x00	; 0
    22e2:	02 c0       	rjmp	.+4      	; 0x22e8 <__stack+0xe9>
    22e4:	6f ef       	ldi	r22, 0xFF	; 255
    22e6:	7f ef       	ldi	r23, 0xFF	; 255
    22e8:	c5 01       	movw	r24, r10
    22ea:	4e d1       	rcall	.+668    	; 0x2588 <strnlen>
    22ec:	4c 01       	movw	r8, r24
    22ee:	82 01       	movw	r16, r4
    22f0:	f3 2d       	mov	r31, r3
    22f2:	ff 77       	andi	r31, 0x7F	; 127
    22f4:	3f 2e       	mov	r3, r31
    22f6:	15 c0       	rjmp	.+42     	; 0x2322 <__stack+0x123>
    22f8:	28 01       	movw	r4, r16
    22fa:	22 e0       	ldi	r18, 0x02	; 2
    22fc:	42 0e       	add	r4, r18
    22fe:	51 1c       	adc	r5, r1
    2300:	f8 01       	movw	r30, r16
    2302:	a0 80       	ld	r10, Z
    2304:	b1 80       	ldd	r11, Z+1	; 0x01
    2306:	36 fe       	sbrs	r3, 6
    2308:	03 c0       	rjmp	.+6      	; 0x2310 <__stack+0x111>
    230a:	69 2d       	mov	r22, r9
    230c:	70 e0       	ldi	r23, 0x00	; 0
    230e:	02 c0       	rjmp	.+4      	; 0x2314 <__stack+0x115>
    2310:	6f ef       	ldi	r22, 0xFF	; 255
    2312:	7f ef       	ldi	r23, 0xFF	; 255
    2314:	c5 01       	movw	r24, r10
    2316:	2d d1       	rcall	.+602    	; 0x2572 <strnlen_P>
    2318:	4c 01       	movw	r8, r24
    231a:	f3 2d       	mov	r31, r3
    231c:	f0 68       	ori	r31, 0x80	; 128
    231e:	3f 2e       	mov	r3, r31
    2320:	82 01       	movw	r16, r4
    2322:	33 fc       	sbrc	r3, 3
    2324:	19 c0       	rjmp	.+50     	; 0x2358 <__stack+0x159>
    2326:	82 2d       	mov	r24, r2
    2328:	90 e0       	ldi	r25, 0x00	; 0
    232a:	88 16       	cp	r8, r24
    232c:	99 06       	cpc	r9, r25
    232e:	a0 f4       	brcc	.+40     	; 0x2358 <__stack+0x159>
    2330:	b6 01       	movw	r22, r12
    2332:	80 e2       	ldi	r24, 0x20	; 32
    2334:	90 e0       	ldi	r25, 0x00	; 0
    2336:	33 d1       	rcall	.+614    	; 0x259e <fputc>
    2338:	2a 94       	dec	r2
    233a:	f5 cf       	rjmp	.-22     	; 0x2326 <__stack+0x127>
    233c:	f5 01       	movw	r30, r10
    233e:	37 fc       	sbrc	r3, 7
    2340:	85 91       	lpm	r24, Z+
    2342:	37 fe       	sbrs	r3, 7
    2344:	81 91       	ld	r24, Z+
    2346:	5f 01       	movw	r10, r30
    2348:	b6 01       	movw	r22, r12
    234a:	90 e0       	ldi	r25, 0x00	; 0
    234c:	28 d1       	rcall	.+592    	; 0x259e <fputc>
    234e:	21 10       	cpse	r2, r1
    2350:	2a 94       	dec	r2
    2352:	21 e0       	ldi	r18, 0x01	; 1
    2354:	82 1a       	sub	r8, r18
    2356:	91 08       	sbc	r9, r1
    2358:	81 14       	cp	r8, r1
    235a:	91 04       	cpc	r9, r1
    235c:	79 f7       	brne	.-34     	; 0x233c <__stack+0x13d>
    235e:	e1 c0       	rjmp	.+450    	; 0x2522 <__stack+0x323>
    2360:	84 36       	cpi	r24, 0x64	; 100
    2362:	11 f0       	breq	.+4      	; 0x2368 <__stack+0x169>
    2364:	89 36       	cpi	r24, 0x69	; 105
    2366:	39 f5       	brne	.+78     	; 0x23b6 <__stack+0x1b7>
    2368:	f8 01       	movw	r30, r16
    236a:	37 fe       	sbrs	r3, 7
    236c:	07 c0       	rjmp	.+14     	; 0x237c <__stack+0x17d>
    236e:	60 81       	ld	r22, Z
    2370:	71 81       	ldd	r23, Z+1	; 0x01
    2372:	82 81       	ldd	r24, Z+2	; 0x02
    2374:	93 81       	ldd	r25, Z+3	; 0x03
    2376:	0c 5f       	subi	r16, 0xFC	; 252
    2378:	1f 4f       	sbci	r17, 0xFF	; 255
    237a:	08 c0       	rjmp	.+16     	; 0x238c <__stack+0x18d>
    237c:	60 81       	ld	r22, Z
    237e:	71 81       	ldd	r23, Z+1	; 0x01
    2380:	07 2e       	mov	r0, r23
    2382:	00 0c       	add	r0, r0
    2384:	88 0b       	sbc	r24, r24
    2386:	99 0b       	sbc	r25, r25
    2388:	0e 5f       	subi	r16, 0xFE	; 254
    238a:	1f 4f       	sbci	r17, 0xFF	; 255
    238c:	f3 2d       	mov	r31, r3
    238e:	ff 76       	andi	r31, 0x6F	; 111
    2390:	3f 2e       	mov	r3, r31
    2392:	97 ff       	sbrs	r25, 7
    2394:	09 c0       	rjmp	.+18     	; 0x23a8 <__stack+0x1a9>
    2396:	90 95       	com	r25
    2398:	80 95       	com	r24
    239a:	70 95       	com	r23
    239c:	61 95       	neg	r22
    239e:	7f 4f       	sbci	r23, 0xFF	; 255
    23a0:	8f 4f       	sbci	r24, 0xFF	; 255
    23a2:	9f 4f       	sbci	r25, 0xFF	; 255
    23a4:	f0 68       	ori	r31, 0x80	; 128
    23a6:	3f 2e       	mov	r3, r31
    23a8:	2a e0       	ldi	r18, 0x0A	; 10
    23aa:	30 e0       	ldi	r19, 0x00	; 0
    23ac:	a3 01       	movw	r20, r6
    23ae:	33 d1       	rcall	.+614    	; 0x2616 <__ultoa_invert>
    23b0:	88 2e       	mov	r8, r24
    23b2:	86 18       	sub	r8, r6
    23b4:	44 c0       	rjmp	.+136    	; 0x243e <__stack+0x23f>
    23b6:	85 37       	cpi	r24, 0x75	; 117
    23b8:	31 f4       	brne	.+12     	; 0x23c6 <__stack+0x1c7>
    23ba:	23 2d       	mov	r18, r3
    23bc:	2f 7e       	andi	r18, 0xEF	; 239
    23be:	b2 2e       	mov	r11, r18
    23c0:	2a e0       	ldi	r18, 0x0A	; 10
    23c2:	30 e0       	ldi	r19, 0x00	; 0
    23c4:	25 c0       	rjmp	.+74     	; 0x2410 <__stack+0x211>
    23c6:	93 2d       	mov	r25, r3
    23c8:	99 7f       	andi	r25, 0xF9	; 249
    23ca:	b9 2e       	mov	r11, r25
    23cc:	8f 36       	cpi	r24, 0x6F	; 111
    23ce:	c1 f0       	breq	.+48     	; 0x2400 <__stack+0x201>
    23d0:	18 f4       	brcc	.+6      	; 0x23d8 <__stack+0x1d9>
    23d2:	88 35       	cpi	r24, 0x58	; 88
    23d4:	79 f0       	breq	.+30     	; 0x23f4 <__stack+0x1f5>
    23d6:	ae c0       	rjmp	.+348    	; 0x2534 <__stack+0x335>
    23d8:	80 37       	cpi	r24, 0x70	; 112
    23da:	19 f0       	breq	.+6      	; 0x23e2 <__stack+0x1e3>
    23dc:	88 37       	cpi	r24, 0x78	; 120
    23de:	21 f0       	breq	.+8      	; 0x23e8 <__stack+0x1e9>
    23e0:	a9 c0       	rjmp	.+338    	; 0x2534 <__stack+0x335>
    23e2:	e9 2f       	mov	r30, r25
    23e4:	e0 61       	ori	r30, 0x10	; 16
    23e6:	be 2e       	mov	r11, r30
    23e8:	b4 fe       	sbrs	r11, 4
    23ea:	0d c0       	rjmp	.+26     	; 0x2406 <__stack+0x207>
    23ec:	fb 2d       	mov	r31, r11
    23ee:	f4 60       	ori	r31, 0x04	; 4
    23f0:	bf 2e       	mov	r11, r31
    23f2:	09 c0       	rjmp	.+18     	; 0x2406 <__stack+0x207>
    23f4:	34 fe       	sbrs	r3, 4
    23f6:	0a c0       	rjmp	.+20     	; 0x240c <__stack+0x20d>
    23f8:	29 2f       	mov	r18, r25
    23fa:	26 60       	ori	r18, 0x06	; 6
    23fc:	b2 2e       	mov	r11, r18
    23fe:	06 c0       	rjmp	.+12     	; 0x240c <__stack+0x20d>
    2400:	28 e0       	ldi	r18, 0x08	; 8
    2402:	30 e0       	ldi	r19, 0x00	; 0
    2404:	05 c0       	rjmp	.+10     	; 0x2410 <__stack+0x211>
    2406:	20 e1       	ldi	r18, 0x10	; 16
    2408:	30 e0       	ldi	r19, 0x00	; 0
    240a:	02 c0       	rjmp	.+4      	; 0x2410 <__stack+0x211>
    240c:	20 e1       	ldi	r18, 0x10	; 16
    240e:	32 e0       	ldi	r19, 0x02	; 2
    2410:	f8 01       	movw	r30, r16
    2412:	b7 fe       	sbrs	r11, 7
    2414:	07 c0       	rjmp	.+14     	; 0x2424 <__stack+0x225>
    2416:	60 81       	ld	r22, Z
    2418:	71 81       	ldd	r23, Z+1	; 0x01
    241a:	82 81       	ldd	r24, Z+2	; 0x02
    241c:	93 81       	ldd	r25, Z+3	; 0x03
    241e:	0c 5f       	subi	r16, 0xFC	; 252
    2420:	1f 4f       	sbci	r17, 0xFF	; 255
    2422:	06 c0       	rjmp	.+12     	; 0x2430 <__stack+0x231>
    2424:	60 81       	ld	r22, Z
    2426:	71 81       	ldd	r23, Z+1	; 0x01
    2428:	80 e0       	ldi	r24, 0x00	; 0
    242a:	90 e0       	ldi	r25, 0x00	; 0
    242c:	0e 5f       	subi	r16, 0xFE	; 254
    242e:	1f 4f       	sbci	r17, 0xFF	; 255
    2430:	a3 01       	movw	r20, r6
    2432:	f1 d0       	rcall	.+482    	; 0x2616 <__ultoa_invert>
    2434:	88 2e       	mov	r8, r24
    2436:	86 18       	sub	r8, r6
    2438:	fb 2d       	mov	r31, r11
    243a:	ff 77       	andi	r31, 0x7F	; 127
    243c:	3f 2e       	mov	r3, r31
    243e:	36 fe       	sbrs	r3, 6
    2440:	0d c0       	rjmp	.+26     	; 0x245c <__stack+0x25d>
    2442:	23 2d       	mov	r18, r3
    2444:	2e 7f       	andi	r18, 0xFE	; 254
    2446:	a2 2e       	mov	r10, r18
    2448:	89 14       	cp	r8, r9
    244a:	58 f4       	brcc	.+22     	; 0x2462 <__stack+0x263>
    244c:	34 fe       	sbrs	r3, 4
    244e:	0b c0       	rjmp	.+22     	; 0x2466 <__stack+0x267>
    2450:	32 fc       	sbrc	r3, 2
    2452:	09 c0       	rjmp	.+18     	; 0x2466 <__stack+0x267>
    2454:	83 2d       	mov	r24, r3
    2456:	8e 7e       	andi	r24, 0xEE	; 238
    2458:	a8 2e       	mov	r10, r24
    245a:	05 c0       	rjmp	.+10     	; 0x2466 <__stack+0x267>
    245c:	b8 2c       	mov	r11, r8
    245e:	a3 2c       	mov	r10, r3
    2460:	03 c0       	rjmp	.+6      	; 0x2468 <__stack+0x269>
    2462:	b8 2c       	mov	r11, r8
    2464:	01 c0       	rjmp	.+2      	; 0x2468 <__stack+0x269>
    2466:	b9 2c       	mov	r11, r9
    2468:	a4 fe       	sbrs	r10, 4
    246a:	0f c0       	rjmp	.+30     	; 0x248a <__stack+0x28b>
    246c:	fe 01       	movw	r30, r28
    246e:	e8 0d       	add	r30, r8
    2470:	f1 1d       	adc	r31, r1
    2472:	80 81       	ld	r24, Z
    2474:	80 33       	cpi	r24, 0x30	; 48
    2476:	21 f4       	brne	.+8      	; 0x2480 <__stack+0x281>
    2478:	9a 2d       	mov	r25, r10
    247a:	99 7e       	andi	r25, 0xE9	; 233
    247c:	a9 2e       	mov	r10, r25
    247e:	09 c0       	rjmp	.+18     	; 0x2492 <__stack+0x293>
    2480:	a2 fe       	sbrs	r10, 2
    2482:	06 c0       	rjmp	.+12     	; 0x2490 <__stack+0x291>
    2484:	b3 94       	inc	r11
    2486:	b3 94       	inc	r11
    2488:	04 c0       	rjmp	.+8      	; 0x2492 <__stack+0x293>
    248a:	8a 2d       	mov	r24, r10
    248c:	86 78       	andi	r24, 0x86	; 134
    248e:	09 f0       	breq	.+2      	; 0x2492 <__stack+0x293>
    2490:	b3 94       	inc	r11
    2492:	a3 fc       	sbrc	r10, 3
    2494:	10 c0       	rjmp	.+32     	; 0x24b6 <__stack+0x2b7>
    2496:	a0 fe       	sbrs	r10, 0
    2498:	06 c0       	rjmp	.+12     	; 0x24a6 <__stack+0x2a7>
    249a:	b2 14       	cp	r11, r2
    249c:	80 f4       	brcc	.+32     	; 0x24be <__stack+0x2bf>
    249e:	28 0c       	add	r2, r8
    24a0:	92 2c       	mov	r9, r2
    24a2:	9b 18       	sub	r9, r11
    24a4:	0d c0       	rjmp	.+26     	; 0x24c0 <__stack+0x2c1>
    24a6:	b2 14       	cp	r11, r2
    24a8:	58 f4       	brcc	.+22     	; 0x24c0 <__stack+0x2c1>
    24aa:	b6 01       	movw	r22, r12
    24ac:	80 e2       	ldi	r24, 0x20	; 32
    24ae:	90 e0       	ldi	r25, 0x00	; 0
    24b0:	76 d0       	rcall	.+236    	; 0x259e <fputc>
    24b2:	b3 94       	inc	r11
    24b4:	f8 cf       	rjmp	.-16     	; 0x24a6 <__stack+0x2a7>
    24b6:	b2 14       	cp	r11, r2
    24b8:	18 f4       	brcc	.+6      	; 0x24c0 <__stack+0x2c1>
    24ba:	2b 18       	sub	r2, r11
    24bc:	02 c0       	rjmp	.+4      	; 0x24c2 <__stack+0x2c3>
    24be:	98 2c       	mov	r9, r8
    24c0:	21 2c       	mov	r2, r1
    24c2:	a4 fe       	sbrs	r10, 4
    24c4:	0f c0       	rjmp	.+30     	; 0x24e4 <__stack+0x2e5>
    24c6:	b6 01       	movw	r22, r12
    24c8:	80 e3       	ldi	r24, 0x30	; 48
    24ca:	90 e0       	ldi	r25, 0x00	; 0
    24cc:	68 d0       	rcall	.+208    	; 0x259e <fputc>
    24ce:	a2 fe       	sbrs	r10, 2
    24d0:	16 c0       	rjmp	.+44     	; 0x24fe <__stack+0x2ff>
    24d2:	a1 fc       	sbrc	r10, 1
    24d4:	03 c0       	rjmp	.+6      	; 0x24dc <__stack+0x2dd>
    24d6:	88 e7       	ldi	r24, 0x78	; 120
    24d8:	90 e0       	ldi	r25, 0x00	; 0
    24da:	02 c0       	rjmp	.+4      	; 0x24e0 <__stack+0x2e1>
    24dc:	88 e5       	ldi	r24, 0x58	; 88
    24de:	90 e0       	ldi	r25, 0x00	; 0
    24e0:	b6 01       	movw	r22, r12
    24e2:	0c c0       	rjmp	.+24     	; 0x24fc <__stack+0x2fd>
    24e4:	8a 2d       	mov	r24, r10
    24e6:	86 78       	andi	r24, 0x86	; 134
    24e8:	51 f0       	breq	.+20     	; 0x24fe <__stack+0x2ff>
    24ea:	a1 fe       	sbrs	r10, 1
    24ec:	02 c0       	rjmp	.+4      	; 0x24f2 <__stack+0x2f3>
    24ee:	8b e2       	ldi	r24, 0x2B	; 43
    24f0:	01 c0       	rjmp	.+2      	; 0x24f4 <__stack+0x2f5>
    24f2:	80 e2       	ldi	r24, 0x20	; 32
    24f4:	a7 fc       	sbrc	r10, 7
    24f6:	8d e2       	ldi	r24, 0x2D	; 45
    24f8:	b6 01       	movw	r22, r12
    24fa:	90 e0       	ldi	r25, 0x00	; 0
    24fc:	50 d0       	rcall	.+160    	; 0x259e <fputc>
    24fe:	89 14       	cp	r8, r9
    2500:	30 f4       	brcc	.+12     	; 0x250e <__stack+0x30f>
    2502:	b6 01       	movw	r22, r12
    2504:	80 e3       	ldi	r24, 0x30	; 48
    2506:	90 e0       	ldi	r25, 0x00	; 0
    2508:	4a d0       	rcall	.+148    	; 0x259e <fputc>
    250a:	9a 94       	dec	r9
    250c:	f8 cf       	rjmp	.-16     	; 0x24fe <__stack+0x2ff>
    250e:	8a 94       	dec	r8
    2510:	f3 01       	movw	r30, r6
    2512:	e8 0d       	add	r30, r8
    2514:	f1 1d       	adc	r31, r1
    2516:	80 81       	ld	r24, Z
    2518:	b6 01       	movw	r22, r12
    251a:	90 e0       	ldi	r25, 0x00	; 0
    251c:	40 d0       	rcall	.+128    	; 0x259e <fputc>
    251e:	81 10       	cpse	r8, r1
    2520:	f6 cf       	rjmp	.-20     	; 0x250e <__stack+0x30f>
    2522:	22 20       	and	r2, r2
    2524:	09 f4       	brne	.+2      	; 0x2528 <__stack+0x329>
    2526:	4e ce       	rjmp	.-868    	; 0x21c4 <vfprintf+0x4c>
    2528:	b6 01       	movw	r22, r12
    252a:	80 e2       	ldi	r24, 0x20	; 32
    252c:	90 e0       	ldi	r25, 0x00	; 0
    252e:	37 d0       	rcall	.+110    	; 0x259e <fputc>
    2530:	2a 94       	dec	r2
    2532:	f7 cf       	rjmp	.-18     	; 0x2522 <__stack+0x323>
    2534:	f6 01       	movw	r30, r12
    2536:	86 81       	ldd	r24, Z+6	; 0x06
    2538:	97 81       	ldd	r25, Z+7	; 0x07
    253a:	02 c0       	rjmp	.+4      	; 0x2540 <__stack+0x341>
    253c:	8f ef       	ldi	r24, 0xFF	; 255
    253e:	9f ef       	ldi	r25, 0xFF	; 255
    2540:	2b 96       	adiw	r28, 0x0b	; 11
    2542:	0f b6       	in	r0, 0x3f	; 63
    2544:	f8 94       	cli
    2546:	de bf       	out	0x3e, r29	; 62
    2548:	0f be       	out	0x3f, r0	; 63
    254a:	cd bf       	out	0x3d, r28	; 61
    254c:	df 91       	pop	r29
    254e:	cf 91       	pop	r28
    2550:	1f 91       	pop	r17
    2552:	0f 91       	pop	r16
    2554:	ff 90       	pop	r15
    2556:	ef 90       	pop	r14
    2558:	df 90       	pop	r13
    255a:	cf 90       	pop	r12
    255c:	bf 90       	pop	r11
    255e:	af 90       	pop	r10
    2560:	9f 90       	pop	r9
    2562:	8f 90       	pop	r8
    2564:	7f 90       	pop	r7
    2566:	6f 90       	pop	r6
    2568:	5f 90       	pop	r5
    256a:	4f 90       	pop	r4
    256c:	3f 90       	pop	r3
    256e:	2f 90       	pop	r2
    2570:	08 95       	ret

00002572 <strnlen_P>:
    2572:	fc 01       	movw	r30, r24
    2574:	05 90       	lpm	r0, Z+
    2576:	61 50       	subi	r22, 0x01	; 1
    2578:	70 40       	sbci	r23, 0x00	; 0
    257a:	01 10       	cpse	r0, r1
    257c:	d8 f7       	brcc	.-10     	; 0x2574 <strnlen_P+0x2>
    257e:	80 95       	com	r24
    2580:	90 95       	com	r25
    2582:	8e 0f       	add	r24, r30
    2584:	9f 1f       	adc	r25, r31
    2586:	08 95       	ret

00002588 <strnlen>:
    2588:	fc 01       	movw	r30, r24
    258a:	61 50       	subi	r22, 0x01	; 1
    258c:	70 40       	sbci	r23, 0x00	; 0
    258e:	01 90       	ld	r0, Z+
    2590:	01 10       	cpse	r0, r1
    2592:	d8 f7       	brcc	.-10     	; 0x258a <strnlen+0x2>
    2594:	80 95       	com	r24
    2596:	90 95       	com	r25
    2598:	8e 0f       	add	r24, r30
    259a:	9f 1f       	adc	r25, r31
    259c:	08 95       	ret

0000259e <fputc>:
    259e:	0f 93       	push	r16
    25a0:	1f 93       	push	r17
    25a2:	cf 93       	push	r28
    25a4:	df 93       	push	r29
    25a6:	fb 01       	movw	r30, r22
    25a8:	23 81       	ldd	r18, Z+3	; 0x03
    25aa:	21 fd       	sbrc	r18, 1
    25ac:	03 c0       	rjmp	.+6      	; 0x25b4 <fputc+0x16>
    25ae:	8f ef       	ldi	r24, 0xFF	; 255
    25b0:	9f ef       	ldi	r25, 0xFF	; 255
    25b2:	2c c0       	rjmp	.+88     	; 0x260c <fputc+0x6e>
    25b4:	22 ff       	sbrs	r18, 2
    25b6:	16 c0       	rjmp	.+44     	; 0x25e4 <fputc+0x46>
    25b8:	46 81       	ldd	r20, Z+6	; 0x06
    25ba:	57 81       	ldd	r21, Z+7	; 0x07
    25bc:	24 81       	ldd	r18, Z+4	; 0x04
    25be:	35 81       	ldd	r19, Z+5	; 0x05
    25c0:	42 17       	cp	r20, r18
    25c2:	53 07       	cpc	r21, r19
    25c4:	44 f4       	brge	.+16     	; 0x25d6 <fputc+0x38>
    25c6:	a0 81       	ld	r26, Z
    25c8:	b1 81       	ldd	r27, Z+1	; 0x01
    25ca:	9d 01       	movw	r18, r26
    25cc:	2f 5f       	subi	r18, 0xFF	; 255
    25ce:	3f 4f       	sbci	r19, 0xFF	; 255
    25d0:	31 83       	std	Z+1, r19	; 0x01
    25d2:	20 83       	st	Z, r18
    25d4:	8c 93       	st	X, r24
    25d6:	26 81       	ldd	r18, Z+6	; 0x06
    25d8:	37 81       	ldd	r19, Z+7	; 0x07
    25da:	2f 5f       	subi	r18, 0xFF	; 255
    25dc:	3f 4f       	sbci	r19, 0xFF	; 255
    25de:	37 83       	std	Z+7, r19	; 0x07
    25e0:	26 83       	std	Z+6, r18	; 0x06
    25e2:	14 c0       	rjmp	.+40     	; 0x260c <fputc+0x6e>
    25e4:	8b 01       	movw	r16, r22
    25e6:	ec 01       	movw	r28, r24
    25e8:	fb 01       	movw	r30, r22
    25ea:	00 84       	ldd	r0, Z+8	; 0x08
    25ec:	f1 85       	ldd	r31, Z+9	; 0x09
    25ee:	e0 2d       	mov	r30, r0
    25f0:	19 95       	eicall
    25f2:	89 2b       	or	r24, r25
    25f4:	e1 f6       	brne	.-72     	; 0x25ae <fputc+0x10>
    25f6:	d8 01       	movw	r26, r16
    25f8:	16 96       	adiw	r26, 0x06	; 6
    25fa:	8d 91       	ld	r24, X+
    25fc:	9c 91       	ld	r25, X
    25fe:	17 97       	sbiw	r26, 0x07	; 7
    2600:	01 96       	adiw	r24, 0x01	; 1
    2602:	17 96       	adiw	r26, 0x07	; 7
    2604:	9c 93       	st	X, r25
    2606:	8e 93       	st	-X, r24
    2608:	16 97       	sbiw	r26, 0x06	; 6
    260a:	ce 01       	movw	r24, r28
    260c:	df 91       	pop	r29
    260e:	cf 91       	pop	r28
    2610:	1f 91       	pop	r17
    2612:	0f 91       	pop	r16
    2614:	08 95       	ret

00002616 <__ultoa_invert>:
    2616:	fa 01       	movw	r30, r20
    2618:	aa 27       	eor	r26, r26
    261a:	28 30       	cpi	r18, 0x08	; 8
    261c:	51 f1       	breq	.+84     	; 0x2672 <__ultoa_invert+0x5c>
    261e:	20 31       	cpi	r18, 0x10	; 16
    2620:	81 f1       	breq	.+96     	; 0x2682 <__ultoa_invert+0x6c>
    2622:	e8 94       	clt
    2624:	6f 93       	push	r22
    2626:	6e 7f       	andi	r22, 0xFE	; 254
    2628:	6e 5f       	subi	r22, 0xFE	; 254
    262a:	7f 4f       	sbci	r23, 0xFF	; 255
    262c:	8f 4f       	sbci	r24, 0xFF	; 255
    262e:	9f 4f       	sbci	r25, 0xFF	; 255
    2630:	af 4f       	sbci	r26, 0xFF	; 255
    2632:	b1 e0       	ldi	r27, 0x01	; 1
    2634:	3e d0       	rcall	.+124    	; 0x26b2 <__ultoa_invert+0x9c>
    2636:	b4 e0       	ldi	r27, 0x04	; 4
    2638:	3c d0       	rcall	.+120    	; 0x26b2 <__ultoa_invert+0x9c>
    263a:	67 0f       	add	r22, r23
    263c:	78 1f       	adc	r23, r24
    263e:	89 1f       	adc	r24, r25
    2640:	9a 1f       	adc	r25, r26
    2642:	a1 1d       	adc	r26, r1
    2644:	68 0f       	add	r22, r24
    2646:	79 1f       	adc	r23, r25
    2648:	8a 1f       	adc	r24, r26
    264a:	91 1d       	adc	r25, r1
    264c:	a1 1d       	adc	r26, r1
    264e:	6a 0f       	add	r22, r26
    2650:	71 1d       	adc	r23, r1
    2652:	81 1d       	adc	r24, r1
    2654:	91 1d       	adc	r25, r1
    2656:	a1 1d       	adc	r26, r1
    2658:	20 d0       	rcall	.+64     	; 0x269a <__ultoa_invert+0x84>
    265a:	09 f4       	brne	.+2      	; 0x265e <__ultoa_invert+0x48>
    265c:	68 94       	set
    265e:	3f 91       	pop	r19
    2660:	2a e0       	ldi	r18, 0x0A	; 10
    2662:	26 9f       	mul	r18, r22
    2664:	11 24       	eor	r1, r1
    2666:	30 19       	sub	r19, r0
    2668:	30 5d       	subi	r19, 0xD0	; 208
    266a:	31 93       	st	Z+, r19
    266c:	de f6       	brtc	.-74     	; 0x2624 <__ultoa_invert+0xe>
    266e:	cf 01       	movw	r24, r30
    2670:	08 95       	ret
    2672:	46 2f       	mov	r20, r22
    2674:	47 70       	andi	r20, 0x07	; 7
    2676:	40 5d       	subi	r20, 0xD0	; 208
    2678:	41 93       	st	Z+, r20
    267a:	b3 e0       	ldi	r27, 0x03	; 3
    267c:	0f d0       	rcall	.+30     	; 0x269c <__ultoa_invert+0x86>
    267e:	c9 f7       	brne	.-14     	; 0x2672 <__ultoa_invert+0x5c>
    2680:	f6 cf       	rjmp	.-20     	; 0x266e <__ultoa_invert+0x58>
    2682:	46 2f       	mov	r20, r22
    2684:	4f 70       	andi	r20, 0x0F	; 15
    2686:	40 5d       	subi	r20, 0xD0	; 208
    2688:	4a 33       	cpi	r20, 0x3A	; 58
    268a:	18 f0       	brcs	.+6      	; 0x2692 <__ultoa_invert+0x7c>
    268c:	49 5d       	subi	r20, 0xD9	; 217
    268e:	31 fd       	sbrc	r19, 1
    2690:	40 52       	subi	r20, 0x20	; 32
    2692:	41 93       	st	Z+, r20
    2694:	02 d0       	rcall	.+4      	; 0x269a <__ultoa_invert+0x84>
    2696:	a9 f7       	brne	.-22     	; 0x2682 <__ultoa_invert+0x6c>
    2698:	ea cf       	rjmp	.-44     	; 0x266e <__ultoa_invert+0x58>
    269a:	b4 e0       	ldi	r27, 0x04	; 4
    269c:	a6 95       	lsr	r26
    269e:	97 95       	ror	r25
    26a0:	87 95       	ror	r24
    26a2:	77 95       	ror	r23
    26a4:	67 95       	ror	r22
    26a6:	ba 95       	dec	r27
    26a8:	c9 f7       	brne	.-14     	; 0x269c <__ultoa_invert+0x86>
    26aa:	00 97       	sbiw	r24, 0x00	; 0
    26ac:	61 05       	cpc	r22, r1
    26ae:	71 05       	cpc	r23, r1
    26b0:	08 95       	ret
    26b2:	9b 01       	movw	r18, r22
    26b4:	ac 01       	movw	r20, r24
    26b6:	0a 2e       	mov	r0, r26
    26b8:	06 94       	lsr	r0
    26ba:	57 95       	ror	r21
    26bc:	47 95       	ror	r20
    26be:	37 95       	ror	r19
    26c0:	27 95       	ror	r18
    26c2:	ba 95       	dec	r27
    26c4:	c9 f7       	brne	.-14     	; 0x26b8 <__ultoa_invert+0xa2>
    26c6:	62 0f       	add	r22, r18
    26c8:	73 1f       	adc	r23, r19
    26ca:	84 1f       	adc	r24, r20
    26cc:	95 1f       	adc	r25, r21
    26ce:	a0 1d       	adc	r26, r0
    26d0:	08 95       	ret

000026d2 <_exit>:
    26d2:	f8 94       	cli

000026d4 <__stop_program>:
    26d4:	ff cf       	rjmp	.-2      	; 0x26d4 <__stop_program>
